
ll.i686:     file format elf32-i386


Disassembly of section .text:

08048054 <_start>:
 8048054:	66 bd c0 03          	mov    $0x3c0,%bp
 8048058:	be ae 82 04 08       	mov    $0x80482ae,%esi
 804805d:	bf 10 88 04 08       	mov    $0x8048810,%edi
 8048062:	57                   	push   %edi

08048063 <decompression_loop>:
 8048063:	ac                   	lods   %ds:(%esi),%al
 8048064:	b7 ff                	mov    $0xff,%bh
 8048066:	88 c3                	mov    %al,%bl

08048068 <test_flags>:
 8048068:	81 fe c9 83 04 08    	cmp    $0x80483c9,%esi
 804806e:	74 32                	je     80480a2 <done_logo>
 8048070:	d1 eb                	shr    %ebx
 8048072:	72 2a                	jb     804809e <discrete_char>

08048074 <offset_length>:
 8048074:	66 ad                	lods   %ds:(%esi),%ax
 8048076:	89 c2                	mov    %eax,%edx
 8048078:	c1 e8 0a             	shr    $0xa,%eax
 804807b:	04 03                	add    $0x3,%al
 804807d:	88 c1                	mov    %al,%cl

0804807f <output_loop>:
 804807f:	80 e6 03             	and    $0x3,%dh
 8048082:	8a 82 d0 83 04 08    	mov    0x80483d0(%edx),%al
 8048088:	42                   	inc    %edx

08048089 <store_byte>:
 8048089:	aa                   	stos   %al,%es:(%edi)
 804808a:	88 85 d0 83 04 08    	mov    %al,0x80483d0(%ebp)
 8048090:	45                   	inc    %ebp
 8048091:	66 81 e5 ff 03       	and    $0x3ff,%bp
 8048096:	e2 e7                	loop   804807f <output_loop>
 8048098:	08 ff                	or     %bh,%bh
 804809a:	75 cc                	jne    8048068 <test_flags>
 804809c:	eb c5                	jmp    8048063 <decompression_loop>

0804809e <discrete_char>:
 804809e:	ac                   	lods   %ds:(%esi),%al
 804809f:	41                   	inc    %ecx
 80480a0:	eb e7                	jmp    8048089 <store_byte>

080480a2 <done_logo>:
 80480a2:	5d                   	pop    %ebp
 80480a3:	89 e9                	mov    %ebp,%ecx
 80480a5:	e8 72 01 00 00       	call   804821c <write_stdout>

080480aa <setup>:
 80480aa:	ba e3 81 04 08       	mov    $0x80481e3,%edx
 80480af:	6a 7a                	push   $0x7a
 80480b1:	58                   	pop    %eax
 80480b2:	bb 50 d8 04 08       	mov    $0x804d850,%ebx
 80480b7:	cd 80                	int    $0x80
 80480b9:	89 ef                	mov    %ebp,%edi
 80480bb:	be 50 d8 04 08       	mov    $0x804d850,%esi
 80480c0:	ff d2                	call   *%edx
 80480c2:	be 44 82 04 08       	mov    $0x8048244,%esi
 80480c7:	ff d2                	call   *%edx
 80480c9:	56                   	push   %esi
 80480ca:	be d2 d8 04 08       	mov    $0x804d8d2,%esi
 80480cf:	ff d2                	call   *%edx
 80480d1:	5e                   	pop    %esi
 80480d2:	ff d2                	call   *%edx
 80480d4:	56                   	push   %esi
 80480d5:	be 13 d9 04 08       	mov    $0x804d913,%esi
 80480da:	ff d2                	call   *%edx
 80480dc:	89 e9                	mov    %ebp,%ecx
 80480de:	66 b8 0a 00          	mov    $0xa,%ax
 80480e2:	66 ab                	stos   %ax,%es:(%edi)
 80480e4:	ff d2                	call   *%edx
 80480e6:	e8 00 01 00 00       	call   80481eb <center_and_print>
 80480eb:	52                   	push   %edx
 80480ec:	6a 05                	push   $0x5
 80480ee:	58                   	pop    %eax
 80480ef:	bb 89 82 04 08       	mov    $0x8048289,%ebx
 80480f4:	31 c9                	xor    %ecx,%ecx
 80480f6:	99                   	cltd   
 80480f7:	cd 80                	int    $0x80
 80480f9:	89 c3                	mov    %eax,%ebx
 80480fb:	6a 03                	push   $0x3
 80480fd:	58                   	pop    %eax
 80480fe:	b9 10 c8 04 08       	mov    $0x804c810,%ecx
 8048103:	b6 10                	mov    $0x10,%dh
 8048105:	cd 80                	int    $0x80
 8048107:	6a 06                	push   $0x6
 8048109:	58                   	pop    %eax
 804810a:	cd 80                	int    $0x80

0804810c <number_of_cpus>:
 804810c:	31 db                	xor    %ebx,%ebx

0804810e <bogo_loop>:
 804810e:	8b 01                	mov    (%ecx),%eax
 8048110:	41                   	inc    %ecx
 8048111:	3c 00                	cmp    $0x0,%al
 8048113:	74 0b                	je     8048120 <done_bogo>
 8048115:	3d 62 6f 67 6f       	cmp    $0x6f676f62,%eax
 804811a:	75 f2                	jne    804810e <bogo_loop>
 804811c:	43                   	inc    %ebx
 804811d:	43                   	inc    %ebx
 804811e:	eb ee                	jmp    804810e <bogo_loop>

08048120 <done_bogo>:
 8048120:	8d b4 5b 91 82 04 08 	lea    0x8048291(%ebx,%ebx,2),%esi
 8048127:	89 ef                	mov    %ebp,%edi
 8048129:	5a                   	pop    %edx
 804812a:	ff d2                	call   *%edx
 804812c:	b0 20                	mov    $0x20,%al
 804812e:	aa                   	stos   %al,%es:(%edi)
 804812f:	53                   	push   %ebx
 8048130:	52                   	push   %edx

08048131 <print_mhz>:
 8048131:	bb 20 4d 48 7a       	mov    $0x7a484d20,%ebx
 8048136:	b4 2e                	mov    $0x2e,%ah
 8048138:	83 ea 31             	sub    $0x31,%edx
 804813b:	ff d2                	call   *%edx
 804813d:	89 d8                	mov    %ebx,%eax
 804813f:	c1 c8 08             	ror    $0x8,%eax
 8048142:	ab                   	stos   %eax,%es:(%edi)

08048143 <chip_name>:
 8048143:	bb 6e 61 6d 65       	mov    $0x656d616e,%ebx
 8048148:	b4 20                	mov    $0x20,%ah
 804814a:	ff d2                	call   *%edx
 804814c:	aa                   	stos   %al,%es:(%edi)
 804814d:	e8 78 00 00 00       	call   80481ca <skip_spaces>
 8048152:	5a                   	pop    %edx
 8048153:	5b                   	pop    %ebx
 8048154:	5e                   	pop    %esi
 8048155:	ff d2                	call   *%edx
 8048157:	80 fb 02             	cmp    $0x2,%bl
 804815a:	75 01                	jne    804815d <print_s>
 804815c:	46                   	inc    %esi

0804815d <print_s>:
 804815d:	ff d2                	call   *%edx
 804815f:	56                   	push   %esi
 8048160:	52                   	push   %edx
 8048161:	6a 74                	push   $0x74
 8048163:	58                   	pop    %eax
 8048164:	bb 10 d8 04 08       	mov    $0x804d810,%ebx
 8048169:	cd 80                	int    $0x80
 804816b:	a1 20 d8 04 08       	mov    0x804d820,%eax
 8048170:	c1 e8 14             	shr    $0x14,%eax
 8048173:	83 d0 00             	adc    $0x0,%eax
 8048176:	e8 b4 00 00 00       	call   804822f <num_to_ascii>
 804817b:	5a                   	pop    %edx
 804817c:	5e                   	pop    %esi
 804817d:	ff d2                	call   *%edx
 804817f:	56                   	push   %esi
 8048180:	bb 6d 69 70 73       	mov    $0x7370696d,%ebx
 8048185:	b4 0a                	mov    $0xa,%ah
 8048187:	e8 26 00 00 00       	call   80481b2 <find_string>
 804818c:	5e                   	pop    %esi
 804818d:	ff d2                	call   *%edx
 804818f:	56                   	push   %esi
 8048190:	89 e9                	mov    %ebp,%ecx
 8048192:	e8 54 00 00 00       	call   80481eb <center_and_print>
 8048197:	89 ef                	mov    %ebp,%edi
 8048199:	be 91 d8 04 08       	mov    $0x804d891,%esi
 804819e:	ff d2                	call   *%edx
 80481a0:	e8 46 00 00 00       	call   80481eb <center_and_print>
 80481a5:	59                   	pop    %ecx
 80481a6:	e8 71 00 00 00       	call   804821c <write_stdout>

080481ab <exit>:
 80481ab:	31 db                	xor    %ebx,%ebx
 80481ad:	31 c0                	xor    %eax,%eax
 80481af:	40                   	inc    %eax
 80481b0:	cd 80                	int    $0x80

080481b2 <find_string>:
 80481b2:	be 0f c8 04 08       	mov    $0x804c80f,%esi

080481b7 <find_loop>:
 80481b7:	46                   	inc    %esi
 80481b8:	80 3e 00             	cmpb   $0x0,(%esi)
 80481bb:	74 25                	je     80481e2 <done>
 80481bd:	3b 1e                	cmp    (%esi),%ebx
 80481bf:	75 f6                	jne    80481b7 <find_loop>

080481c1 <find_colon>:
 80481c1:	ac                   	lods   %ds:(%esi),%al
 80481c2:	3c 00                	cmp    $0x0,%al
 80481c4:	74 1c                	je     80481e2 <done>
 80481c6:	3c 3a                	cmp    $0x3a,%al
 80481c8:	75 f7                	jne    80481c1 <find_colon>

080481ca <skip_spaces>:
 80481ca:	ac                   	lods   %ds:(%esi),%al
 80481cb:	3c 20                	cmp    $0x20,%al
 80481cd:	74 fb                	je     80481ca <skip_spaces>

080481cf <store_loop>:
 80481cf:	3c 00                	cmp    $0x0,%al
 80481d1:	74 0f                	je     80481e2 <done>
 80481d3:	38 e0                	cmp    %ah,%al
 80481d5:	74 08                	je     80481df <almost_done>
 80481d7:	3c 0a                	cmp    $0xa,%al
 80481d9:	74 04                	je     80481df <almost_done>
 80481db:	aa                   	stos   %al,%es:(%edi)
 80481dc:	ac                   	lods   %ds:(%esi),%al
 80481dd:	eb f0                	jmp    80481cf <store_loop>

080481df <almost_done>:
 80481df:	c6 07 00             	movb   $0x0,(%edi)

080481e2 <done>:
 80481e2:	c3                   	ret    

080481e3 <strcat>:
 80481e3:	ac                   	lods   %ds:(%esi),%al
 80481e4:	aa                   	stos   %al,%es:(%edi)
 80481e5:	3c 00                	cmp    $0x0,%al
 80481e7:	75 fa                	jne    80481e3 <strcat>
 80481e9:	4f                   	dec    %edi
 80481ea:	c3                   	ret    

080481eb <center_and_print>:
 80481eb:	52                   	push   %edx
 80481ec:	51                   	push   %ecx
 80481ed:	47                   	inc    %edi
 80481ee:	57                   	push   %edi
 80481ef:	66 b8 1b 5b          	mov    $0x5b1b,%ax
 80481f3:	66 ab                	stos   %ax,%es:(%edi)
 80481f5:	99                   	cltd   

080481f6 <str_loop2>:
 80481f6:	42                   	inc    %edx
 80481f7:	80 3c 11 00          	cmpb   $0x0,(%ecx,%edx,1)
 80481fb:	75 f9                	jne    80481f6 <str_loop2>
 80481fd:	6a 51                	push   $0x51
 80481ff:	58                   	pop    %eax
 8048200:	39 c2                	cmp    %eax,%edx
 8048202:	7c 03                	jl     8048207 <not_too_big>
 8048204:	6a 50                	push   $0x50
 8048206:	5a                   	pop    %edx

08048207 <not_too_big>:
 8048207:	29 d0                	sub    %edx,%eax
 8048209:	d1 e8                	shr    %eax
 804820b:	e8 1f 00 00 00       	call   804822f <num_to_ascii>
 8048210:	b0 43                	mov    $0x43,%al
 8048212:	66 ab                	stos   %ax,%es:(%edi)
 8048214:	59                   	pop    %ecx
 8048215:	e8 02 00 00 00       	call   804821c <write_stdout>

0804821a <done_center>:
 804821a:	59                   	pop    %ecx
 804821b:	5a                   	pop    %edx

0804821c <write_stdout>:
 804821c:	52                   	push   %edx
 804821d:	6a 04                	push   $0x4
 804821f:	58                   	pop    %eax
 8048220:	99                   	cltd   
 8048221:	31 db                	xor    %ebx,%ebx
 8048223:	43                   	inc    %ebx

08048224 <str_loop1>:
 8048224:	42                   	inc    %edx
 8048225:	80 3c 11 00          	cmpb   $0x0,(%ecx,%edx,1)
 8048229:	75 f9                	jne    8048224 <str_loop1>
 804822b:	cd 80                	int    $0x80
 804822d:	5a                   	pop    %edx
 804822e:	c3                   	ret    

0804822f <num_to_ascii>:
 804822f:	6a 0a                	push   $0xa
 8048231:	5b                   	pop    %ebx
 8048232:	31 c9                	xor    %ecx,%ecx

08048234 <div_by_10>:
 8048234:	99                   	cltd   
 8048235:	f7 f3                	div    %ebx
 8048237:	52                   	push   %edx
 8048238:	41                   	inc    %ecx
 8048239:	09 c0                	or     %eax,%eax
 804823b:	75 f7                	jne    8048234 <div_by_10>

0804823d <write_out>:
 804823d:	58                   	pop    %eax
 804823e:	04 30                	add    $0x30,%al
 8048240:	aa                   	stos   %al,%es:(%edi)
 8048241:	e2 fa                	loop   804823d <write_out>
 8048243:	c3                   	ret    
