
./ll:     file format elf32-tradlittlemips

Disassembly of section .text:

00400090 <__start>:
  400090:	3c110040 	lui	s1,0x40
  400094:	26310390 	addiu	s1,s1,912
  400098:	3c120040 	lui	s2,0x40
  40009c:	26520510 	addiu	s2,s2,1296
  4000a0:	240803c0 	li	t0,960
  4000a4:	26290061 	addiu	t1,s1,97
  4000a8:	262c017c 	addiu	t4,s1,380
  4000ac:	26500440 	addiu	s0,s2,1088

004000b0 <decompression_loop>:
  4000b0:	912a0000 	lbu	t2,0(t1)
  4000b4:	25290001 	addiu	t1,t1,1
  4000b8:	01405821 	move	t3,t2
  4000bc:	356bff00 	ori	t3,t3,0xff00

004000c0 <test_flags>:
  4000c0:	11890022 	beq	t4,t1,40014c <done_logo>
  4000c4:	00000000 	nop
  4000c8:	316d0001 	andi	t5,t3,0x1
  4000cc:	15a0001b 	bnez	t5,40013c <discrete_char>
  4000d0:	000b5842 	srl	t3,t3,0x1

004000d4 <offset_length>:
  4000d4:	912a0000 	lbu	t2,0(t1)
  4000d8:	91380001 	lbu	t8,1(t1)
  4000dc:	25290002 	addiu	t1,t1,2
  4000e0:	0018c200 	sll	t8,t8,0x8
  4000e4:	030ac025 	or	t8,t8,t2
  4000e8:	00187a82 	srl	t7,t8,0xa
  4000ec:	25ef0003 	addiu	t7,t7,3

004000f0 <output_loop>:
  4000f0:	331803ff 	andi	t8,t8,0x3ff
  4000f4:	264a0000 	addiu	t2,s2,0
  4000f8:	01585021 	addu	t2,t2,t8
  4000fc:	914a0000 	lbu	t2,0(t2)
  400100:	27180001 	addiu	t8,t8,1

00400104 <store_byte>:
  400104:	a20a0000 	sb	t2,0(s0)
  400108:	26100001 	addiu	s0,s0,1
  40010c:	26410000 	addiu	at,s2,0
  400110:	00280821 	addu	at,at,t0
  400114:	a02a0000 	sb	t2,0(at)
  400118:	21080001 	addi	t0,t0,1
  40011c:	25efffff 	addiu	t7,t7,-1
  400120:	15e0fff3 	bnez	t7,4000f0 <output_loop>
  400124:	310803ff 	andi	t0,t0,0x3ff
  400128:	316dff00 	andi	t5,t3,0xff00
  40012c:	15a0ffe4 	bnez	t5,4000c0 <test_flags>
  400130:	00000000 	nop
  400134:	0810002c 	j	4000b0 <decompression_loop>
  400138:	00000000 	nop

0040013c <discrete_char>:
  40013c:	912a0000 	lbu	t2,0(t1)
  400140:	25290001 	addiu	t1,t1,1
  400144:	08100041 	j	400104 <store_byte>
  400148:	240f0001 	li	t7,1

0040014c <done_logo>:
  40014c:	0c1000c9 	jal	400324 <write_stdout>
  400150:	26450440 	addiu	a1,s2,1088

00400154 <first_line>:
  400154:	2402101a 	li	v0,4122
  400158:	26445490 	addiu	a0,s2,21648
  40015c:	0000000c 	syscall
  400160:	26500440 	addiu	s0,s2,1088
  400164:	0c1000ae 	jal	4002b8 <strcat>
  400168:	26455490 	addiu	a1,s2,21648
  40016c:	0c1000ae 	jal	4002b8 <strcat>
  400170:	26250000 	addiu	a1,s1,0
  400174:	0c1000ae 	jal	4002b8 <strcat>
  400178:	26455512 	addiu	a1,s2,21778
  40017c:	0c1000ae 	jal	4002b8 <strcat>
  400180:	2625000a 	addiu	a1,s1,10
  400184:	0c1000ae 	jal	4002b8 <strcat>
  400188:	26455553 	addiu	a1,s2,21843
  40018c:	0c1000b5 	jal	4002d4 <center_and_print>
  400190:	00000000 	nop

00400194 <middle_line>:
  400194:	26500440 	addiu	s0,s2,1088
  400198:	24020fa5 	li	v0,4005
  40019c:	2624003c 	addiu	a0,s1,60
  4001a0:	24050000 	li	a1,0
  4001a4:	0000000c 	syscall
  4001a8:	00402021 	move	a0,v0
  4001ac:	24020fa3 	li	v0,4003
  4001b0:	26454440 	addiu	a1,s2,17472
  4001b4:	24061000 	li	a2,4096
  4001b8:	0000000c 	syscall
  4001bc:	24020fa6 	li	v0,4006
  4001c0:	0000000c 	syscall

004001c4 <number_of_cpus>:
  4001c4:	0c1000ae 	jal	4002b8 <strcat>
  4001c8:	2625004a 	addiu	a1,s1,74

004001cc <chip_name>:
  4001cc:	3c046c65 	lui	a0,0x6c65
  4001d0:	3484646f 	ori	a0,a0,0x646f
  4001d4:	0c100094 	jal	400250 <find_string>
  4001d8:	24060020 	li	a2,32
  4001dc:	0c1000ae 	jal	4002b8 <strcat>
  4001e0:	26250054 	addiu	a1,s1,84
  4001e4:	24021014 	li	v0,4116
  4001e8:	26445450 	addiu	a0,s2,21584
  4001ec:	0000000c 	syscall
  4001f0:	8c840010 	lw	a0,16(a0)
  4001f4:	24130001 	li	s3,1
  4001f8:	0c1000d4 	jal	400350 <num_to_ascii>
  4001fc:	00042502 	srl	a0,a0,0x14
  400200:	0c1000ae 	jal	4002b8 <strcat>
  400204:	26250016 	addiu	a1,s1,22
  400208:	3c045350 	lui	a0,0x5350
  40020c:	3484494d 	ori	a0,a0,0x494d
  400210:	0c100094 	jal	400250 <find_string>
  400214:	2406000a 	li	a2,10
  400218:	0c1000ae 	jal	4002b8 <strcat>
  40021c:	2625001e 	addiu	a1,s1,30
  400220:	0c1000b5 	jal	4002d4 <center_and_print>
  400224:	00000000 	nop
  400228:	26500440 	addiu	s0,s2,1088
  40022c:	0c1000ae 	jal	4002b8 <strcat>
  400230:	264554d1 	addiu	a1,s2,21713
  400234:	0c1000b5 	jal	4002d4 <center_and_print>
  400238:	00000000 	nop
  40023c:	0c1000c9 	jal	400324 <write_stdout>
  400240:	26250030 	addiu	a1,s1,48

00400244 <exit>:
  400244:	24020fa1 	li	v0,4001
  400248:	24040000 	li	a0,0
  40024c:	0000000c 	syscall

00400250 <find_string>:
  400250:	2645443f 	addiu	a1,s2,17471

00400254 <find_loop>:
  400254:	88ab0004 	lwl	t3,4(a1)
  400258:	98ab0001 	lwr	t3,1(a1)
  40025c:	11600014 	beqz	t3,4002b0 <done>
  400260:	24a50001 	addiu	a1,a1,1
  400264:	148bfffb 	bne	a0,t3,400254 <find_loop>
  400268:	00000000 	nop

0040026c <find_colon>:
  40026c:	90ab0001 	lbu	t3,1(a1)
  400270:	24a50001 	addiu	a1,a1,1
  400274:	1160000e 	beqz	t3,4002b0 <done>
  400278:	00000000 	nop
  40027c:	2401003a 	li	at,58
  400280:	1561fffa 	bne	t3,at,40026c <find_colon>
  400284:	00000000 	nop
  400288:	24a50002 	addiu	a1,a1,2

0040028c <store_loop>:
  40028c:	90ab0000 	lbu	t3,0(a1)
  400290:	24a50001 	addiu	a1,a1,1
  400294:	11600006 	beqz	t3,4002b0 <done>
  400298:	00000000 	nop
  40029c:	11660004 	beq	t3,a2,4002b0 <done>
  4002a0:	00000000 	nop
  4002a4:	a20b0000 	sb	t3,0(s0)
  4002a8:	081000a3 	j	40028c <store_loop>
  4002ac:	26100001 	addiu	s0,s0,1

004002b0 <done>:
  4002b0:	03e00008 	jr	ra
  4002b4:	00000000 	nop

004002b8 <strcat>:
  4002b8:	90a80000 	lbu	t0,0(a1)
  4002bc:	24a50001 	addiu	a1,a1,1
  4002c0:	a2080000 	sb	t0,0(s0)
  4002c4:	1500fffc 	bnez	t0,4002b8 <strcat>
  4002c8:	26100001 	addiu	s0,s0,1

004002cc <done_strcat>:
  4002cc:	03e00008 	jr	ra
  4002d0:	2610ffff 	addiu	s0,s0,-1

004002d4 <center_and_print>:
  4002d4:	03e0a821 	move	s5,ra
  4002d8:	0200a021 	move	s4,s0
  4002dc:	26500440 	addiu	s0,s2,1088
  4002e0:	02902023 	subu	a0,s4,s0
  4002e4:	28810051 	slti	at,a0,81
  4002e8:	1020000a 	beqz	at,400314 <done_center>
  4002ec:	24130000 	li	s3,0
  4002f0:	00042022 	neg	a0,a0
  4002f4:	24840050 	addiu	a0,a0,80
  4002f8:	0004b042 	srl	s6,a0,0x1
  4002fc:	0c1000c9 	jal	400324 <write_stdout>
  400300:	26250037 	addiu	a1,s1,55
  400304:	0c1000d4 	jal	400350 <num_to_ascii>
  400308:	02c02021 	move	a0,s6
  40030c:	0c1000c9 	jal	400324 <write_stdout>
  400310:	2625003a 	addiu	a1,s1,58

00400314 <done_center>:
  400314:	0c1000c9 	jal	400324 <write_stdout>
  400318:	26450440 	addiu	a1,s2,1088
  40031c:	2625002e 	addiu	a1,s1,46
  400320:	02a0f821 	move	ra,s5

00400324 <write_stdout>:
  400324:	24020fa4 	li	v0,4004
  400328:	24040001 	li	a0,1
  40032c:	24060000 	li	a2,0
  400330:	00a0c821 	move	t9,a1

00400334 <str_loop1>:
  400334:	93380001 	lbu	t8,1(t9)
  400338:	23390001 	addi	t9,t9,1
  40033c:	1700fffd 	bnez	t8,400334 <str_loop1>
  400340:	20c60001 	addi	a2,a2,1
  400344:	0000000c 	syscall
  400348:	03e00008 	jr	ra
  40034c:	00000000 	nop

00400350 <num_to_ascii>:
  400350:	24a5544a 	addiu	a1,a1,21578

00400354 <div_by_10>:
  400354:	24a5ffff 	addiu	a1,a1,-1
  400358:	2401000a 	li	at,10
  40035c:	14200002 	bnez	at,400368 <div_by_10+0x14>
  400360:	0081001b 	divu	zero,a0,at
  400364:	0007000d 	break	0x7
  400368:	00005012 	mflo	t2
  40036c:	00005810 	mfhi	t3
  400370:	256b0030 	addiu	t3,t3,48
  400374:	a0ab0000 	sb	t3,0(a1)
  400378:	1540fff6 	bnez	t2,400354 <div_by_10>
  40037c:	01402021 	move	a0,t2

00400380 <write_out>:
  400380:	1260ffe8 	beqz	s3,400324 <write_stdout>
  400384:	00000000 	nop
  400388:	081000ae 	j	4002b8 <strcat>
  40038c:	00000000 	nop