
ll.ppc:     file format elf32-powerpc


Disassembly of section .text:

10000054 <_start>:
10000054:	3f 20 10 00 	lis     r25,4096
10000058:	3b 39 04 90 	addi    r25,r25,1168
1000005c:	3f 40 10 00 	lis     r26,4096
10000060:	3b 5a 03 1c 	addi    r26,r26,796
10000064:	3a 39 04 58 	addi    r17,r25,1112
10000068:	3a b9 00 18 	addi    r21,r25,24
1000006c:	39 00 03 c0 	li      r8,960
10000070:	39 3a ff ff 	addi    r9,r26,-1
10000074:	39 9a 01 1a 	addi    r12,r26,282
10000078:	7e 30 8b 78 	mr      r16,r17

1000007c <decompression_loop>:
1000007c:	8d 49 00 01 	lbzu    r10,1(r9)
10000080:	61 4b ff 00 	ori     r11,r10,65280

10000084 <test_flags>:
10000084:	7c 0c 48 00 	cmpw    r12,r9
10000088:	40 81 00 60 	ble-    100000e8 <done_logo>
1000008c:	71 6d 00 01 	andi.   r13,r11,1
10000090:	7d 6b 0e 70 	srawi   r11,r11,1
10000094:	40 82 00 48 	bne-    100000dc <discrete_char>

10000098 <offset_length>:
10000098:	39 29 00 01 	addi    r9,r9,1
1000009c:	7f 00 4e 2c 	lhbrx   r24,0,r9
100000a0:	39 29 00 01 	addi    r9,r9,1
100000a4:	7f 0f 56 70 	srawi   r15,r24,10
100000a8:	39 ef 00 03 	addi    r15,r15,3

100000ac <output_loop>:
100000ac:	73 18 03 ff 	andi.   r24,r24,1023
100000b0:	7d 55 c0 ae 	lbzx    r10,r21,r24
100000b4:	3b 18 00 01 	addi    r24,r24,1

100000b8 <store_byte>:
100000b8:	9d 50 00 01 	stbu    r10,1(r16)
100000bc:	7d 55 41 ae 	stbx    r10,r21,r8
100000c0:	39 08 00 01 	addi    r8,r8,1
100000c4:	71 08 03 ff 	andi.   r8,r8,1023
100000c8:	35 ef ff ff 	addic.  r15,r15,-1
100000cc:	40 82 ff e0 	bne+    100000ac <output_loop>
100000d0:	71 6d ff 00 	andi.   r13,r11,65280
100000d4:	40 82 ff b0 	bne+    10000084 <test_flags>
100000d8:	4b ff ff a4 	b       1000007c <decompression_loop>

100000dc <discrete_char>:
100000dc:	8d 49 00 01 	lbzu    r10,1(r9)
100000e0:	39 e0 00 01 	li      r15,1
100000e4:	4b ff ff d4 	b       100000b8 <store_byte>

100000e8 <done_logo>:
100000e8:	38 91 00 01 	addi    r4,r17,1
100000ec:	48 00 01 ad 	bl      10000298 <write_stdout>

100000f0 <first_line>:
100000f0:	7e 2e 8b 78 	mr      r14,r17

100000f4 <run_uname>:
100000f4:	38 00 00 7a 	li      r0,122
100000f8:	38 79 44 98 	addi    r3,r25,17560
100000fc:	44 00 00 02 	sc      

10000100 <print_version>:
10000100:	3a 19 44 97 	addi    r16,r25,17559
10000104:	48 00 02 01 	bl      10000304 <strcat>
10000108:	3a 1a 01 1a 	addi    r16,r26,282
1000010c:	48 00 01 f9 	bl      10000304 <strcat>
10000110:	3a 19 45 19 	addi    r16,r25,17689
10000114:	48 00 01 f1 	bl      10000304 <strcat>
10000118:	3a 1a 01 24 	addi    r16,r26,292
1000011c:	48 00 01 e9 	bl      10000304 <strcat>
10000120:	3a 19 45 5a 	addi    r16,r25,17754
10000124:	48 00 01 e1 	bl      10000304 <strcat>
10000128:	48 00 01 2d 	bl      10000254 <center_and_print>

1000012c <middle_line>:
1000012c:	7e 2e 8b 78 	mr      r14,r17
10000130:	38 00 00 05 	li      r0,5
10000134:	38 7a 01 5f 	addi    r3,r26,351
10000138:	38 80 00 00 	li      r4,0
1000013c:	44 00 00 02 	sc      
10000140:	7c 6d 1b 78 	mr      r13,r3
10000144:	38 00 00 03 	li      r0,3
10000148:	38 99 46 20 	addi    r4,r25,17952
1000014c:	38 a0 10 00 	li      r5,4096
10000150:	44 00 00 02 	sc      
10000154:	7d a3 6b 78 	mr      r3,r13
10000158:	38 00 00 06 	li      r0,6
1000015c:	44 00 00 02 	sc      

10000160 <num_cpu>:
10000160:	3a 1a 01 6c 	addi    r16,r26,364
10000164:	48 00 01 a1 	bl      10000304 <strcat>

10000168 <mhz>:
10000168:	3e 80 6c 6f 	lis     r20,27759
1000016c:	3a 94 63 6b 	addi    r20,r20,25451
10000170:	3a e0 00 4d 	li      r23,77
10000174:	48 00 00 89 	bl      100001fc <find_string>
10000178:	3a 1a 01 30 	addi    r16,r26,304
1000017c:	48 00 01 89 	bl      10000304 <strcat>

10000180 <chip_name>:
10000180:	3e 80 63 70 	lis     r20,25456
10000184:	3a 94 75 09 	addi    r20,r20,29961
10000188:	3a e0 00 0a 	li      r23,10
1000018c:	48 00 00 71 	bl      100001fc <find_string>
10000190:	3a 1a 01 45 	addi    r16,r26,325
10000194:	48 00 01 71 	bl      10000304 <strcat>

10000198 <ram>:
10000198:	38 00 00 74 	li      r0,116
1000019c:	38 79 44 58 	addi    r3,r25,17496
100001a0:	44 00 00 02 	sc      
100001a4:	80 99 44 68 	lwz     r4,17512(r25)
100001a8:	54 93 65 3e 	rlwinm  r19,r4,12,20,31
100001ac:	38 a0 00 00 	li      r5,0
100001b0:	48 00 01 11 	bl      100002c0 <num_to_ascii>
100001b4:	3a 1a 01 40 	addi    r16,r26,320
100001b8:	48 00 01 4d 	bl      10000304 <strcat>

100001bc <bogomips>:
100001bc:	3e 80 6d 69 	lis     r20,28009
100001c0:	3a 94 70 73 	addi    r20,r20,28787
100001c4:	3a e0 00 0a 	li      r23,10
100001c8:	48 00 00 35 	bl      100001fc <find_string>
100001cc:	3a 1a 01 48 	addi    r16,r26,328
100001d0:	48 00 01 35 	bl      10000304 <strcat>
100001d4:	48 00 00 81 	bl      10000254 <center_and_print>

100001d8 <host_name>:
100001d8:	7e 2e 8b 78 	mr      r14,r17
100001dc:	3a 19 44 d8 	addi    r16,r25,17624
100001e0:	48 00 01 25 	bl      10000304 <strcat>
100001e4:	48 00 00 71 	bl      10000254 <center_and_print>
100001e8:	38 9a 01 59 	addi    r4,r26,345
100001ec:	48 00 00 ad 	bl      10000298 <write_stdout>

100001f0 <exit>:
100001f0:	38 60 00 00 	li      r3,0
100001f4:	38 00 00 01 	li      r0,1
100001f8:	44 00 00 02 	sc      

100001fc <find_string>:
100001fc:	3a 19 46 1f 	addi    r16,r25,17951

10000200 <find_loop>:
10000200:	85 b0 00 01 	lwzu    r13,1(r16)
10000204:	2c 0d 00 00 	cmpwi   r13,0
10000208:	41 82 00 48 	beq-    10000250 <done>
1000020c:	7c 0d a0 00 	cmpw    r13,r20
10000210:	40 82 ff f0 	bne+    10000200 <find_loop>

10000214 <find_colon>:
10000214:	8d b0 00 01 	lbzu    r13,1(r16)
10000218:	2c 0d 00 00 	cmpwi   r13,0
1000021c:	41 82 00 34 	beq-    10000250 <done>
10000220:	2c 0d 00 3a 	cmpwi   r13,58
10000224:	40 82 ff f0 	bne+    10000214 <find_colon>
10000228:	3a 10 00 01 	addi    r16,r16,1

1000022c <store_loop>:
1000022c:	8d b0 00 01 	lbzu    r13,1(r16)
10000230:	2c 0d 00 00 	cmpwi   r13,0
10000234:	41 82 00 1c 	beq-    10000250 <done>
10000238:	7c 0d b8 00 	cmpw    r13,r23
1000023c:	41 82 00 0c 	beq-    10000248 <almost_done>
10000240:	9d ae 00 01 	stbu    r13,1(r14)
10000244:	4b ff ff e8 	b       1000022c <store_loop>

10000248 <almost_done>:
10000248:	39 a0 00 00 	li      r13,0
1000024c:	99 ae 00 01 	stb     r13,1(r14)

10000250 <done>:
10000250:	4e 80 00 20 	blr

10000254 <center_and_print>:
10000254:	7f a8 02 a6 	mflr    r29
10000258:	7c b1 70 50 	subf    r5,r17,r14
1000025c:	2c 05 00 50 	cmpwi   r5,80
10000260:	41 81 00 28 	bgt-    10000288 <done_center>
10000264:	20 85 00 50 	subfic  r4,r5,80
10000268:	7c 97 0e 70 	srawi   r23,r4,1
1000026c:	38 9a 01 3c 	addi    r4,r26,316
10000270:	48 00 00 29 	bl      10000298 <write_stdout>
10000274:	7e f3 bb 78 	mr      r19,r23
10000278:	38 a0 00 01 	li      r5,1
1000027c:	48 00 00 45 	bl      100002c0 <num_to_ascii>
10000280:	38 9a 01 3f 	addi    r4,r26,319
10000284:	48 00 00 15 	bl      10000298 <write_stdout>

10000288 <done_center>:
10000288:	38 91 00 01 	addi    r4,r17,1
1000028c:	48 00 00 0d 	bl      10000298 <write_stdout>
10000290:	38 9a 01 3a 	addi    r4,r26,314
10000294:	7f a8 03 a6 	mtlr    r29

10000298 <write_stdout>:
10000298:	38 00 00 04 	li      r0,4
1000029c:	38 60 00 01 	li      r3,1
100002a0:	38 a0 00 00 	li      r5,0

100002a4 <strlen_loop>:
100002a4:	7c c4 28 ae 	lbzx    r6,r4,r5
100002a8:	38 a5 00 01 	addi    r5,r5,1
100002ac:	2c 06 00 00 	cmpwi   r6,0
100002b0:	40 82 ff f4 	bne+    100002a4 <strlen_loop>
100002b4:	38 a5 ff ff 	addi    r5,r5,-1
100002b8:	44 00 00 02 	sc      
100002bc:	4e 80 00 20 	blr

100002c0 <num_to_ascii>:
100002c0:	7f c8 02 a6 	mflr    r30
100002c4:	3a 19 00 10 	addi    r16,r25,16
100002c8:	3a 80 00 0a 	li      r20,10

100002cc <div_by_10>:
100002cc:	7e b3 a3 d6 	divw    r21,r19,r20
100002d0:	7e d5 a1 d6 	mullw   r22,r21,r20
100002d4:	7e d6 98 50 	subf    r22,r22,r19
100002d8:	3a d6 00 30 	addi    r22,r22,48
100002dc:	9e d0 ff ff 	stbu    r22,-1(r16)
100002e0:	7e b3 ab 78 	mr      r19,r21
100002e4:	2c 13 00 00 	cmpwi   r19,0
100002e8:	40 82 ff e4 	bne+    100002cc <div_by_10>

100002ec <write_out>:
100002ec:	7f c8 03 a6 	mtlr    r30
100002f0:	2c 05 00 00 	cmpwi   r5,0
100002f4:	41 82 00 0c 	beq-    10000300 <strcat_num>

100002f8 <stdout_num>:
100002f8:	7e 04 83 78 	mr      r4,r16
100002fc:	4b ff ff 9c 	b       10000298 <write_stdout>

10000300 <strcat_num>:
10000300:	3a 10 ff ff 	addi    r16,r16,-1

10000304 <strcat>:
10000304:	8d b0 00 01 	lbzu    r13,1(r16)
10000308:	9d ae 00 01 	stbu    r13,1(r14)
1000030c:	2c 0d 00 00 	cmpwi   r13,0
10000310:	40 82 ff f4 	bne+    10000304 <strcat>
10000314:	39 ce ff ff 	addi    r14,r14,-1
10000318:	4e 80 00 20 	blr

Disassembly of section .data:

1000031c <data_begin>:
1000031c:	ff 1b 5b 30 	.long 0xff1b5b30
10000320:	3b 31 3b 33 	addi    r25,r17,15155
10000324:	37 9f 3b 34 	addic.  r28,r31,15156
10000328:	37 6d 23 cc 	addic.  r27,r13,9164
1000032c:	f7 c0 07 33 	.long 0xf7c00733
10000330:	8d 30 c8 1b 	lbzu    r9,-14309(r16)
10000334:	1b 5b c4 07 	.long 0x1b5bc407
10000338:	cb 1f 1c 0c 	lfd     f24,7180(r31)
1000033c:	3b 0f 34 30 	addi    r24,r15,13360
10000340:	6d 0a c0 f7 	xoris   r10,r8,49399
10000344:	01 60 1a 38 	.long 0x1601a38
10000348:	2c 9c 1f 1b 	cmpwi   cr1,r28,7963
1000034c:	5b 33 31 6d 	rlmi.   r19,r25,r6,5,22
10000350:	cc 04 41 ac 	lfdu    f0,16812(r4)
10000354:	0d 24 02 1c 	twi     9,r4,540
10000358:	10 4f 0d 20 	vmhaddshs v2,v15,v1,v20
1000035c:	10 41 93 98 	.long 0x10419398
10000360:	83 34 1c 34 	lwz     r25,7220(r20)
10000364:	cc 10 10 0c 	lfdu    f0,4108(r16)
10000368:	24 6f 39 ec 	dozi    r3,r15,14828
1000036c:	a7 1c 08 33 	lhzu    r24,2099(r28)
10000370:	16 14 89 55 	.long 0x16148955
10000374:	2c 60 00 2b 	cmpdi   r0,43
10000378:	61 d6 71 e2 	ori     r22,r14,29154
1000037c:	c8 cb 08 d4 	lfd     f6,2260(r11)
10000380:	09 d3 10 2b 	tdi     14,r19,4139
10000384:	59 f5 d1 00 	rlmi    r21,r15,r26,4,0
10000388:	80 11 d2 18 	lwz     r0,-11752(r17)
1000038c:	0d 28 1c 14 	twi     9,r8,7188
10000390:	0d 2c 1c 1c 	twi     9,r12,7196
10000394:	f0 4a 1a 5b 	.long 0xf04a1a5b
10000398:	00 0d 50 5f 	.long 0xd505f
1000039c:	65 87 65 2b 	oris    r7,r12,25899
100003a0:	55 f5 cd cd 	rlwinm. r21,r15,25,23,6
100003a4:	28 cd 14 89 	cmplwi  cr1,r13,5257
100003a8:	41 00 1d 87 	bdnztla- lt,1d84 <N+0x1984>
100003ac:	42 4b 72 53 	bcla-   18,4*cr2+so,7250 <N+0x6e50>
100003b0:	1c 78 0f 62 	mulli   r3,r24,3938
100003b4:	87 6d 55 58 	lwzu    r27,21848(r13)
100003b8:	f7 c1 00 e8 	.long 0xf7c100e8
100003bc:	2b f4 97 49 	cmpldi  cr7,r20,38729
100003c0:	78 3d b0 1b 	.long 0x783db01b
100003c4:	5f 97 b0 12 	rlwnm   r23,r28,r22,0,9
100003c8:	2b ab ca 10 	cmpldi  cr7,r11,51728
100003cc:	df 16 1a f5 	stfdu   f24,6901(r22)
100003d0:	5a f5 d9 3f 	rlmi.   r21,r23,r27,4,31
100003d4:	33 1b 56 92 	addic   r24,r27,22162
100003d8:	5b b0 02 00 	rlmi    r16,r29,r0,8,0
100003dc:	0c 1d d3 c8 	twi     0,r29,-11320
100003e0:	ac 39 17 66 	lhau    r1,5990(r25)
100003e4:	32 f6 6e 6d 	addic   r23,r22,28269
100003e8:	ec 44 60 5e 	.long 0xec44605e
100003ec:	08 af 0a a6 	tdlgei  r15,2726
100003f0:	69 14 01 30 	xori    r20,r8,304
100003f4:	33 0b de 1f 	addic   r24,r11,-8673
100003f8:	31 0f d3 bc 	addic   r8,r15,-11332
100003fc:	00 af 4f 19 	.long 0xaf4f19
10000400:	56 aa 45 52 	rlwinm  r10,r21,8,21,9
10000404:	db 28 52 46 	stfd    f25,21062(r8)
10000408:	7f 08 53 db 	.long 0x7f0853db
1000040c:	23 00 a9 55 	subfic  r24,r0,-22187
10000410:	aa 35 18 21 	lha     r17,6177(r21)
10000414:	12 68 91 2a 	vsel    v19,v8,v18,v4
10000418:	c8 22 b2 68 	lfd     f1,-19864(r2)
1000041c:	70 2d 00 c6 	andi.   r13,r1,198
10000420:	50 b2 79 91 	rlwimi. r18,r5,15,6,8
10000424:	4a 70 31 f8 	b       e70361c <N+0xe70321c>
10000428:	51 f3 28 dd 	rlwimi. r19,r15,5,3,14
1000042c:	17 ff 17 08 	.long 0x17ff1708
10000430:	02 36 03 24 	.long 0x2360324
10000434:	e5 42 0a 20 	.long 0xe5420a20

10000437 <logo_end>:
10000437:	20 56 65 72 	subfic  r2,r22,25970
1000043b:	73 69 6f 6e 	andi.   r9,r27,28526
1000043f:	20 00 2c 20 	subfic  r0,r0,11296

10000441 <compiled_string>:
10000441:	2c 20 43 6f 	cmpdi   r0,17263
10000445:	6d 70 69 6c 	xoris   r16,r11,26988
10000449:	65 64 20 00 	oris    r4,r11,8192

1000044d <megahertz>:
1000044d:	4d 48 7a 20 	.long 0x4d487a20
10000451:	50 50 43 20 	rlwimi  r16,r2,8,12,16
	...

10000456 <linefeed>:
10000456:	0a 00 1b 5b 	tdlti   r0,7003

10000458 <escape>:
10000458:	1b 5b 00 43 	.long 0x1b5b0043

1000045b <c>:
1000045b:	43 00 4d 20 	bdnz-   1000517b <disk_buffer+0x6cb>

1000045d <ram_comma>:
1000045d:	4d 20 52 41 	.long 0x4d205241
10000461:	4d 2c 20 00 	.long 0x4d2c2000

10000462 <comma>:
10000462:	2c 20 00 20 	cmpdi   r0,32

10000465 <bogo_total>:
10000465:	20 42 6f 67 	subfic  r2,r2,28519
10000469:	6f 6d 69 70 	xoris   r13,r27,26992
1000046d:	73 20 54 6f 	andi.   r0,r25,21615
10000471:	74 61 6c 00 	andis.  r1,r3,27648

10000475 <default_colors>:
10000475:	1b 5b 30 6d 	.long 0x1b5b306d
10000479:	0a 00 2f 70 	tdlti   r0,12144

1000047b <cpuinfo>:
1000047b:	2f 70 72 6f 	cmpdi   cr6,r16,29295
1000047f:	63 2f 63 70 	ori     r15,r25,25456
10000483:	75 69 6e 66 	andis.  r9,r11,28262
10000487:	6f 00 4f 6e 	xoris   r0,r24,20334

10000489 <one>:
10000489:	4f 6e 65 20 	.long 0x4f6e6520
	...

Disassembly of section .bss:

10000490 <bss_begin>:
	...

100004a0 <num_to_ascii_end>:
	...

100004a8 <text_buf>:
	...

100008e8 <out_buffer>:
	...

100048e8 <sysinfo_buff>:
	...

10004928 <uname_info>:
	...

10004ab0 <disk_buffer>:
	...
