
ll.alpha:     file format elf64-alpha


Disassembly of section .text:

0000000120000078 <_start>:
   120000078:	00 00 60 c3 	br	t12,12000007c <_start+0x4>
   12000007c:	01 00 bb 27 	ldah	gp,1(t12)
   120000080:	64 86 bd 23 	lda	gp,-31132(gp)
   120000084:	08 80 bd a5 	ldq	s4,-32760(gp)
   120000088:	38 80 7d a5 	ldq	s2,-32712(gp)
   12000008c:	c0 03 9f 21 	lda	s3,960
   120000090:	09 f4 ae 41 	addq	s4,0x77,s0
   120000094:	00 80 5d a5 	ldq	s1,-32768(gp)
   120000098:	e0 1f ff 21 	lda	fp,8160

000000012000009c <decompression_loop>:
   12000009c:	00 00 89 23 	lda	at,0(s0)
   1200000a0:	00 00 1c 2d 	ldq_u	t7,0(at)
   1200000a4:	c8 00 1c 49 	extbl	t7,at,t7
   1200000a8:	01 00 29 21 	lda	s0,1(s0)
   1200000ac:	42 06 e8 41 	s8addq	fp,t7,t1

00000001200000b0 <test_flags>:
   1200000b0:	a1 05 2a 41 	cmpeq	s0,s1,t0
   1200000b4:	31 00 20 f4 	bne	t0,12000017c <done_logo>
   1200000b8:	01 04 e2 47 	mov	t1,t0
   1200000bc:	82 36 40 48 	srl	t1,0x1,t1
   1200000c0:	28 00 20 f0 	blbs	t0,120000164 <discrete_char>

00000001200000c4 <offset_length>:
   1200000c4:	00 00 89 23 	lda	at,0(s0)
   1200000c8:	00 00 fc 2e 	ldq_u	t9,0(at)
   1200000cc:	01 00 1c 2f 	ldq_u	t10,1(at)
   1200000d0:	d7 02 fc 4a 	extwl	t9,at,t9
   1200000d4:	58 0b 1c 4b 	extwh	t10,at,t10
   1200000d8:	04 04 f8 46 	or	t9,t10,t3
   1200000dc:	02 00 29 21 	lda	s0,2(s0)
   1200000e0:	83 56 81 48 	srl	t3,0xa,t2
   1200000e4:	03 00 63 20 	lda	t2,3(t2)

00000001200000e8 <output_loop>:
   1200000e8:	ff 03 3f 20 	lda	t0,1023
   1200000ec:	04 00 81 44 	and	t3,t0,t3
   1200000f0:	30 80 1d a5 	ldq	t7,-32720(gp)
   1200000f4:	08 04 04 41 	addq	t7,t3,t7
   1200000f8:	00 00 88 23 	lda	at,0(t7)
   1200000fc:	00 00 1c 2d 	ldq_u	t7,0(at)
   120000100:	c8 00 1c 49 	extbl	t7,at,t7
   120000104:	01 00 84 20 	lda	t3,1(t3)

0000000120000108 <store_byte>:
   120000108:	00 00 8b 23 	lda	at,0(s2)
   12000010c:	00 00 fc 2e 	ldq_u	t9,0(at)
   120000110:	78 01 1c 49 	insbl	t7,at,t10
   120000114:	57 00 fc 4a 	mskbl	t9,at,t9
   120000118:	17 04 f8 46 	or	t9,t10,t9
   12000011c:	00 00 fc 3e 	stq_u	t9,0(at)
   120000120:	01 00 6b 21 	lda	s2,1(s2)
   120000124:	30 80 3d a4 	ldq	t0,-32720(gp)
   120000128:	01 04 2c 40 	addq	t0,s3,t0
   12000012c:	00 00 81 23 	lda	at,0(t0)
   120000130:	00 00 fc 2e 	ldq_u	t9,0(at)
   120000134:	78 01 1c 49 	insbl	t7,at,t10
   120000138:	57 00 fc 4a 	mskbl	t9,at,t9
   12000013c:	17 04 f8 46 	or	t9,t10,t9
   120000140:	00 00 fc 3e 	stq_u	t9,0(at)
   120000144:	01 00 8c 21 	lda	s3,1(s3)
   120000148:	ff 03 df 20 	lda	t5,1023
   12000014c:	0c 00 86 45 	and	s3,t5,s3
   120000150:	ff ff 63 20 	lda	t2,-1(t2)
   120000154:	e4 ff 7f f4 	bne	t2,1200000e8 <output_loop>
   120000158:	81 16 41 48 	srl	t1,0x8,t0
   12000015c:	d4 ff 3f f4 	bne	t0,1200000b0 <test_flags>
   120000160:	ce ff ff c3 	br	12000009c <decompression_loop>

0000000120000164 <discrete_char>:
   120000164:	00 00 89 23 	lda	at,0(s0)
   120000168:	00 00 1c 2d 	ldq_u	t7,0(at)
   12000016c:	c8 00 1c 49 	extbl	t7,at,t7
   120000170:	01 00 29 21 	lda	s0,1(s0)
   120000174:	01 00 7f 20 	lda	t2,1
   120000178:	e3 ff ff c3 	br	120000108 <store_byte>

000000012000017c <done_logo>:
   12000017c:	38 80 3d a6 	ldq	a1,-32712(gp)
   120000180:	bc 00 40 c3 	br	ra,120000474 <write_stdout>

0000000120000184 <first_line>:
   120000184:	53 01 1f 20 	lda	v0,339
   120000188:	28 80 1d a6 	ldq	a0,-32728(gp)
   12000018c:	09 04 f0 47 	mov	a0,s0
   120000190:	83 00 00 00 	callsys
   120000194:	38 80 7d a5 	ldq	s2,-32712(gp)
   120000198:	d4 00 40 c3 	br	ra,1200004ec <strcat>
   12000019c:	10 14 a0 41 	addq	s4,0,a0
   1200001a0:	d2 00 40 c3 	br	ra,1200004ec <strcat>
   1200001a4:	10 54 30 41 	addq	s0,0x82,a0
   1200001a8:	d0 00 40 c3 	br	ra,1200004ec <strcat>
   1200001ac:	10 54 a1 41 	addq	s4,0xa,a0
   1200001b0:	ce 00 40 c3 	br	ra,1200004ec <strcat>
   1200001b4:	10 74 38 41 	addq	s0,0xc3,a0
   1200001b8:	cc 00 40 c3 	br	ra,1200004ec <strcat>
   1200001bc:	9c 00 20 c3 	br	t11,120000430 <center_and_print>

00000001200001c0 <middle_line>:
   1200001c0:	38 80 7d a5 	ldq	s2,-32712(gp)
   1200001c4:	2d 00 1f 20 	lda	v0,45
   1200001c8:	10 d4 aa 41 	addq	s4,0x56,a0
   1200001cc:	00 00 3f 22 	lda	a1,0
   1200001d0:	83 00 00 00 	callsys
   1200001d4:	05 04 e0 47 	mov	v0,t4
   1200001d8:	03 00 1f 20 	lda	v0,3
   1200001dc:	10 04 e5 47 	mov	t4,a0
   1200001e0:	20 80 3d a6 	ldq	a1,-32736(gp)
   1200001e4:	00 10 5f 22 	lda	a2,4096
   1200001e8:	83 00 00 00 	callsys
   1200001ec:	10 04 e5 47 	mov	t4,a0
   1200001f0:	06 00 1f 20 	lda	v0,6
   1200001f4:	83 00 00 00 	callsys
   1200001f8:	65 64 3f 26 	ldah	a1,25701
   1200001fc:	63 74 31 22 	lda	a1,29795(a1)
   120000200:	0a 00 5f 22 	lda	a2,10
   120000204:	10 04 eb 47 	mov	s2,a0
   120000208:	5a 00 40 c3 	br	ra,120000374 <find_string>
   12000020c:	00 00 8b 23 	lda	at,0(s2)
   120000210:	00 00 fc 2e 	ldq_u	t9,0(at)
   120000214:	78 01 fc 4b 	insbl	zero,at,t10
   120000218:	57 00 fc 4a 	mskbl	t9,at,t9
   12000021c:	17 04 f8 46 	or	t9,t10,t9
   120000220:	00 00 fc 3e 	stq_u	t9,0(at)
   120000224:	0b 04 f0 47 	mov	a0,s2
   120000228:	75 00 40 c3 	br	ra,120000400 <ascii_to_num>
   12000022c:	2b 35 60 41 	subq	s2,0x1,s2
   120000230:	04 04 e0 47 	mov	v0,t3
   120000234:	a1 9d 00 40 	cmple	v0,0x4,t0
   120000238:	0a 00 20 e4 	beq	t0,120000264 <print_megahertz>
   12000023c:	0b 04 f0 47 	mov	a0,s2
   120000240:	10 94 ac 41 	addq	s4,0x64,a0
   120000244:	20 35 00 40 	subq	v0,0x1,v0
   120000248:	00 80 3d a4 	ldq	t0,-32768(gp)
   12000024c:	01 04 20 40 	addq	t0,v0,t0
   120000250:	00 00 81 23 	lda	at,0(t0)
   120000254:	00 00 3c 2c 	ldq_u	t0,0(at)
   120000258:	c1 00 3c 48 	extbl	t0,at,t0
   12000025c:	10 04 01 42 	addq	a0,t0,a0
   120000260:	a2 00 40 c3 	br	ra,1200004ec <strcat>

0000000120000264 <print_megahertz>:
   120000264:	20 00 1f 22 	lda	a0,32
   120000268:	00 00 8b 23 	lda	at,0(s2)
   12000026c:	00 00 fc 2e 	ldq_u	t9,0(at)
   120000270:	78 01 1c 4a 	insbl	a0,at,t10
   120000274:	57 00 fc 4a 	mskbl	t9,at,t9
   120000278:	17 04 f8 46 	or	t9,t10,t9
   12000027c:	00 00 fc 3e 	stq_u	t9,0(at)
   120000280:	0b 34 60 41 	addq	s2,0x1,s2
   120000284:	63 6c 3f 26 	ldah	a1,27747
   120000288:	63 79 31 22 	lda	a1,31075(a1)
   12000028c:	0a 00 5f 22 	lda	a2,10
   120000290:	10 04 eb 47 	mov	s2,a0
   120000294:	37 00 40 c3 	br	ra,120000374 <find_string>
   120000298:	00 00 8b 23 	lda	at,0(s2)
   12000029c:	00 00 fc 2e 	ldq_u	t9,0(at)
   1200002a0:	78 01 fc 4b 	insbl	zero,at,t10
   1200002a4:	57 00 fc 4a 	mskbl	t9,at,t9
   1200002a8:	17 04 f8 46 	or	t9,t10,t9
   1200002ac:	00 00 fc 3e 	stq_u	t9,0(at)
   1200002b0:	0b 04 f0 47 	mov	a0,s2
   1200002b4:	52 00 40 c3 	br	ra,120000400 <ascii_to_num>
   1200002b8:	0b 04 f0 47 	mov	a0,s2
   1200002bc:	10 04 e0 47 	mov	v0,a0
   1200002c0:	0f 00 3f 26 	ldah	a1,15
   1200002c4:	40 42 31 22 	lda	a1,16960(a1)
   1200002c8:	96 00 00 c3 	br	t10,120000524 <divide>
   1200002cc:	01 00 bf 20 	lda	t4,1
   1200002d0:	10 04 e0 47 	mov	v0,a0
   1200002d4:	73 00 40 c3 	br	ra,1200004a4 <num_to_ascii>
   1200002d8:	10 d4 a2 41 	addq	s4,0x16,a0
   1200002dc:	83 00 40 c3 	br	ra,1200004ec <strcat>
   1200002e0:	65 6c 3f 26 	ldah	a1,27749
   1200002e4:	6f 64 31 22 	lda	a1,25711(a1)
   1200002e8:	0a 00 5f 22 	lda	a2,10
   1200002ec:	21 00 40 c3 	br	ra,120000374 <find_string>
   1200002f0:	10 f4 a8 41 	addq	s4,0x47,a0
   1200002f4:	7d 00 40 c3 	br	ra,1200004ec <strcat>
   1200002f8:	10 54 aa 41 	addq	s4,0x52,a0
   1200002fc:	a1 35 80 40 	cmpeq	t3,0x1,t0
   120000300:	01 00 20 e4 	beq	t0,120000308 <plural>
   120000304:	10 34 00 42 	addq	a0,0x1,a0

0000000120000308 <plural>:
   120000308:	78 00 40 c3 	br	ra,1200004ec <strcat>
   12000030c:	3e 01 1f 20 	lda	v0,318
   120000310:	18 80 1d a6 	ldq	a0,-32744(gp)
   120000314:	83 00 00 00 	callsys
   120000318:	18 80 1d a6 	ldq	a0,-32744(gp)
   12000031c:	20 00 10 a6 	ldq	a0,32(a0)
   120000320:	90 97 02 4a 	sra	a0,0x14,a0
   120000324:	01 00 bf 20 	lda	t4,1
   120000328:	5e 00 40 c3 	br	ra,1200004a4 <num_to_ascii>
   12000032c:	10 34 a4 41 	addq	s4,0x21,a0
   120000330:	6e 00 40 c3 	br	ra,1200004ec <strcat>
   120000334:	50 53 3f 26 	ldah	a1,21328
   120000338:	4d 49 31 22 	lda	a1,18765(a1)
   12000033c:	0a 00 5f 22 	lda	a2,10
   120000340:	0c 00 40 c3 	br	ra,120000374 <find_string>
   120000344:	10 34 a5 41 	addq	s4,0x29,a0
   120000348:	68 00 40 c3 	br	ra,1200004ec <strcat>
   12000034c:	38 00 20 c3 	br	t11,120000430 <center_and_print>

0000000120000350 <last_line>:
   120000350:	38 80 7d a5 	ldq	s2,-32712(gp)
   120000354:	10 34 28 41 	addq	s0,0x41,a0
   120000358:	64 00 40 c3 	br	ra,1200004ec <strcat>
   12000035c:	34 00 20 c3 	br	t11,120000430 <center_and_print>
   120000360:	11 74 a7 41 	addq	s4,0x3b,a1
   120000364:	43 00 40 c3 	br	ra,120000474 <write_stdout>

0000000120000368 <exit>:
   120000368:	10 04 ff 47 	clr	a0
   12000036c:	00 34 e0 47 	mov	0x1,v0
   120000370:	83 00 00 00 	callsys

0000000120000374 <find_string>:
   120000374:	20 80 bd a4 	ldq	t4,-32736(gp)

0000000120000378 <find_loop>:
   120000378:	00 00 85 23 	lda	at,0(t4)
   12000037c:	00 00 fc 2e 	ldq_u	t9,0(at)
   120000380:	03 00 1c 2f 	ldq_u	t10,3(at)
   120000384:	d7 04 fc 4a 	extll	t9,at,t9
   120000388:	58 0d 1c 4b 	extlh	t10,at,t10
   12000038c:	06 04 f8 46 	or	t9,t10,t5
   120000390:	1a 00 c0 e4 	beq	t5,1200003fc <done>
   120000394:	01 00 a5 20 	lda	t4,1(t4)
   120000398:	a7 05 26 42 	cmpeq	a1,t5,t6
   12000039c:	f6 ff ff e4 	beq	t6,120000378 <find_loop>

00000001200003a0 <find_colon>:
   1200003a0:	00 00 85 23 	lda	at,0(t4)
   1200003a4:	00 00 dc 2c 	ldq_u	t5,0(at)
   1200003a8:	c6 00 dc 48 	extbl	t5,at,t5
   1200003ac:	01 00 a5 20 	lda	t4,1(t4)
   1200003b0:	12 00 c0 e4 	beq	t5,1200003fc <done>
   1200003b4:	a7 55 c7 40 	cmpeq	t5,0x3a,t6
   1200003b8:	f9 ff ff e4 	beq	t6,1200003a0 <find_colon>
   1200003bc:	01 00 a5 20 	lda	t4,1(t4)

00000001200003c0 <store_loop>:
   1200003c0:	00 00 85 23 	lda	at,0(t4)
   1200003c4:	00 00 dc 2c 	ldq_u	t5,0(at)
   1200003c8:	c6 00 dc 48 	extbl	t5,at,t5
   1200003cc:	01 00 a5 20 	lda	t4,1(t4)
   1200003d0:	0a 00 c0 e4 	beq	t5,1200003fc <done>
   1200003d4:	a7 05 d2 40 	cmpeq	t5,a2,t6
   1200003d8:	08 00 e0 f4 	bne	t6,1200003fc <done>
   1200003dc:	00 00 8b 23 	lda	at,0(s2)
   1200003e0:	00 00 fc 2e 	ldq_u	t9,0(at)
   1200003e4:	78 01 dc 48 	insbl	t5,at,t10
   1200003e8:	57 00 fc 4a 	mskbl	t9,at,t9
   1200003ec:	17 04 f8 46 	or	t9,t10,t9
   1200003f0:	00 00 fc 3e 	stq_u	t9,0(at)
   1200003f4:	01 00 6b 21 	lda	s2,1(s2)
   1200003f8:	f1 ff ff c3 	br	1200003c0 <store_loop>

00000001200003fc <done>:
   1200003fc:	01 80 5a 6b 	ret	ra,(ra),0x1

0000000120000400 <ascii_to_num>:
   120000400:	00 04 ff 47 	clr	v0

0000000120000404 <ascii_loop>:
   120000404:	00 00 8b 23 	lda	at,0(s2)
   120000408:	00 00 3c 2c 	ldq_u	t0,0(at)
   12000040c:	c1 00 3c 48 	extbl	t0,at,t0
   120000410:	0b 34 60 41 	addq	s2,0x1,s2
   120000414:	a2 19 26 40 	cmplt	t0,0x30,t1
   120000418:	04 00 40 f4 	bne	t1,12000042c <ascii_done>
   12000041c:	00 54 01 4c 	mulq	v0,0xa,v0
   120000420:	21 15 26 40 	subq	t0,0x30,t0
   120000424:	00 04 01 40 	addq	v0,t0,v0
   120000428:	f6 ff ff c3 	br	120000404 <ascii_loop>

000000012000042c <ascii_done>:
   12000042c:	01 80 5a 6b 	ret	ra,(ra),0x1

0000000120000430 <center_and_print>:
   120000430:	38 80 3d a6 	ldq	a1,-32712(gp)
   120000434:	22 05 71 41 	subq	s2,a1,t1
   120000438:	a1 19 4a 40 	cmplt	t1,0x50,t0
   12000043c:	09 00 20 e4 	beq	t0,120000464 <done_center>
   120000440:	05 04 ff 47 	clr	t4
   120000444:	22 05 e2 43 	negq	t1,t1
   120000448:	02 14 4a 40 	addq	t1,0x50,t1
   12000044c:	11 54 a8 41 	addq	s4,0x42,a1
   120000450:	08 00 40 c3 	br	ra,120000474 <write_stdout>
   120000454:	90 36 40 48 	srl	t1,0x1,a0
   120000458:	12 00 40 c3 	br	ra,1200004a4 <num_to_ascii>
   12000045c:	11 b4 a8 41 	addq	s4,0x45,a1
   120000460:	04 00 40 c3 	br	ra,120000474 <write_stdout>

0000000120000464 <done_center>:
   120000464:	38 80 3d a6 	ldq	a1,-32712(gp)
   120000468:	02 00 40 c3 	br	ra,120000474 <write_stdout>
   12000046c:	11 34 a7 41 	addq	s4,0x39,a1
   120000470:	1a 04 f9 47 	mov	t11,ra

0000000120000474 <write_stdout>:
   120000474:	04 00 1f 20 	lda	v0,4
   120000478:	01 00 1f 22 	lda	a0,1
   12000047c:	12 04 ff 47 	clr	a2

0000000120000480 <str_loop1>:
   120000480:	01 04 32 42 	addq	a1,a2,t0
   120000484:	00 00 81 23 	lda	at,0(t0)
   120000488:	00 00 3c 2c 	ldq_u	t0,0(at)
   12000048c:	c1 00 3c 48 	extbl	t0,at,t0
   120000490:	12 34 40 42 	addq	a2,0x1,a2
   120000494:	fa ff 3f f4 	bne	t0,120000480 <str_loop1>
   120000498:	32 35 40 42 	subq	a2,0x1,a2
   12000049c:	83 00 00 00 	callsys
   1200004a0:	01 80 5a 6b 	ret	ra,(ra),0x1

00000001200004a4 <num_to_ascii>:
   1200004a4:	10 80 5d a5 	ldq	s1,-32752(gp)
   1200004a8:	0a 00 3f 22 	lda	a1,10

00000001200004ac <div_by_10>:
   1200004ac:	1d 00 00 c3 	br	t10,120000524 <divide>
   1200004b0:	01 14 26 40 	addq	t0,0x30,t0
   1200004b4:	00 00 8a 23 	lda	at,0(s1)
   1200004b8:	00 00 fc 2e 	ldq_u	t9,0(at)
   1200004bc:	78 01 3c 48 	insbl	t0,at,t10
   1200004c0:	57 00 fc 4a 	mskbl	t9,at,t9
   1200004c4:	17 04 f8 46 	or	t9,t10,t9
   1200004c8:	00 00 fc 3e 	stq_u	t9,0(at)
   1200004cc:	2a 35 40 41 	subq	s1,0x1,s1
   1200004d0:	10 04 e0 47 	mov	v0,a0
   1200004d4:	f5 ff 1f f4 	bne	v0,1200004ac <div_by_10>

00000001200004d8 <write_out>:
   1200004d8:	0a 34 40 41 	addq	s1,0x1,s1
   1200004dc:	02 00 a0 f4 	bne	t4,1200004e8 <to_strcat>

00000001200004e0 <to_stdout>:
   1200004e0:	11 04 ea 47 	mov	s1,a1
   1200004e4:	e3 ff ff c3 	br	120000474 <write_stdout>

00000001200004e8 <to_strcat>:
   1200004e8:	10 04 ea 47 	mov	s1,a0

00000001200004ec <strcat>:
   1200004ec:	00 00 90 23 	lda	at,0(a0)
   1200004f0:	00 00 3c 2c 	ldq_u	t0,0(at)
   1200004f4:	c1 00 3c 48 	extbl	t0,at,t0
   1200004f8:	01 00 10 22 	lda	a0,1(a0)
   1200004fc:	00 00 8b 23 	lda	at,0(s2)
   120000500:	00 00 fc 2e 	ldq_u	t9,0(at)
   120000504:	78 01 3c 48 	insbl	t0,at,t10
   120000508:	57 00 fc 4a 	mskbl	t9,at,t9
   12000050c:	17 04 f8 46 	or	t9,t10,t9
   120000510:	00 00 fc 3e 	stq_u	t9,0(at)
   120000514:	01 00 6b 21 	lda	s2,1(s2)
   120000518:	f4 ff 3f f4 	bne	t0,1200004ec <strcat>
   12000051c:	2b 35 60 41 	subq	s2,0x1,s2
   120000520:	01 80 5a 6b 	ret	ra,(ra),0x1

0000000120000524 <divide>:
   120000524:	00 04 ff 47 	clr	v0

0000000120000528 <divide_loop>:
   120000528:	02 04 11 4c 	mulq	v0,a1,t1
   12000052c:	00 34 00 40 	addq	v0,0x1,v0
   120000530:	a3 0d 50 40 	cmple	t1,a0,t2
   120000534:	fc ff 7f f4 	bne	t2,120000528 <divide_loop>
   120000538:	20 55 00 40 	subq	v0,0x2,v0
   12000053c:	02 04 11 4c 	mulq	v0,a1,t1
   120000540:	21 05 02 42 	subq	a0,t1,t0
   120000544:	00 80 f8 6b 	ret	zero,(t10),0

0000000120000548 <data_begin>:
   120000548:	20 56 65 72 	.long 0x72655620
   12000054c:	73 69 6f 6e 	pal1b	0x26f6973
   120000550:	20 00 2c 20 	lda	t0,32(s3)

0000000120000552 <compiled_string>:
   120000552:	2c 20 43 6f 	pal1b	0x343202c
   120000556:	6d 70 69 6c 	pal1b	0x69706d
   12000055a:	65 64 20 00 	call_pal	0x206465

000000012000055e <megahertz>:
   12000055e:	4d 48 7a 20 	lda	t2,18509(ra)
   120000562:	41 6c 70 68 	jsr	t2,(a0),11fffb66a <N+0x11fffb26a>
   120000566:	61 20 00 4d 	.long 0x4d002061

0000000120000569 <ram_comma>:
   120000569:	4d 20 52 41 	s4addl	s1,a2,s4
   12000056d:	4d 2c 20 00 	call_pal	0x202c4d

0000000120000571 <bogo_total>:
   120000571:	20 42 6f 67 	pal19	0x36f4220
   120000575:	6f 6d 69 70 	.long 0x70696d6f
   120000579:	73 20 54 6f 	pal1b	0x3542073
   12000057d:	74 61 6c 00 	call_pal	0x6c6174

0000000120000581 <linefeed>:
   120000581:	0a 00 1b 5b 	adds/c	$f24,$f27,$f10

0000000120000583 <default_colors>:
   120000583:	1b 5b 30 6d 	pal1b	0x1305b1b
   120000587:	0a 0a 00 1b 	.long 0x1b000a0a

000000012000058a <escape>:
   12000058a:	1b 5b 00 43 	.long 0x43005b1b

000000012000058d <c>:
   12000058d:	43 00 20 50 	.long 0x50200043

000000012000058f <processor>:
   12000058f:	20 50 72 6f 	pal1b	0x3725020
   120000593:	63 65 73 73 	.long 0x73736563
   120000597:	6f 72 00 73 	.long 0x7300726f

000000012000059a <comma>:
   12000059a:	73 2c 20 00 	call_pal	0x202c73

000000012000059e <cpuinfo>:
   12000059e:	2f 70 72 6f 	pal1b	0x372702f
   1200005a2:	63 2f 63 70 	.long 0x70632f63
   1200005a6:	75 69 6e 66 	pal19	0x26e6975
   1200005aa:	6f 00 4f 6e 	pal1b	0x24f006f

00000001200005ac <one>:
   1200005ac:	4f 6e 65 00 	call_pal	0x656e4f

00000001200005b0 <two>:
   1200005b0:	54 77 6f 00 	call_pal	0x6f7754

00000001200005b4 <three>:
   1200005b4:	54 68 72 65 	pal19	0x1726854
   1200005b8:	65 00 46 6f 	pal1b	0x3460065

00000001200005ba <four>:
   1200005ba:	46 6f 75 72 	.long 0x72756f46
	...

00000001200005bf <logo>:
   1200005bf:	ff 1b 5b 30 	ldwu	t1,7167(t12)
   1200005c3:	3b 31 3b 33 	ldwu	t11,12603(t12)
   1200005c7:	37 9f 3b 34 	stw	t0,-24777(t12)
   1200005cb:	37 6d 23 cc 	fble	$f1,1200dbaab <_end+0xcfaab>
   1200005cf:	f7 c0 07 33 	ldwu	t10,-16137(t6)
   1200005d3:	8d 30 c8 1b 	.long 0x1bc8308d
   1200005d7:	1b 5b c4 07 	.long 0x7c45b1b
   1200005db:	cb 1f 1c 0c 	.long 0xc1c1fcb
   1200005df:	3b 0f 34 30 	ldwu	t0,3899(a4)
   1200005e3:	6d 0a c0 f7 	bne	sp,120002f9b <bss_begin+0x287b>
   1200005e7:	01 60 1a 38 	stb	v0,24577(ra)
   1200005eb:	2c 9c 1f 1b 	.long 0x1b1f9c2c
   1200005ef:	5b 33 31 6d 	pal1b	0x131335b
   1200005f3:	cc 04 41 ac 	ldq_l	t1,1228(t0)
   1200005f7:	0d 24 02 1c 	.long 0x1c02240d
   1200005fb:	10 4f 0d 20 	lda	v0,20240(s4)
   1200005ff:	10 41 93 98 	sts	$f4,16656(a3)
   120000603:	83 34 1c 34 	stw	v0,13443(at)
   120000607:	cc 10 10 0c 	.long 0xc1010cc
   12000060b:	24 6f 39 ec 	ble	t0,11fe5c29f <N+0x11fe5be9f>
   12000060f:	a7 1c 08 33 	ldwu	t10,7335(t7)
   120000613:	16 14 89 55 	addg	$f12,$f9,$f22
   120000617:	2c 60 00 2b 	ldbu	t10,24620(v0)
   12000061b:	61 d6 71 e2 	blbc	a3,11fc75fa3 <N+0x11fc75ba3>
   12000061f:	c8 cb 08 d4 	fbne	$f0,120233543 <_end+0x227543>
   120000623:	09 d3 10 2b 	ldbu	t10,-11511(a0)
   120000627:	59 f5 d1 00 	call_pal	0xd1f559
   12000062b:	80 11 d2 18 	.long 0x18d21180
   12000062f:	0d 28 1c 14 	.long 0x141c280d
   120000633:	0d 2c 1c 1c 	.long 0x1c1c2c0d
   120000637:	f0 4a 1a 5b 	.long 0x5b1a4af0
   12000063b:	00 0d 50 5f 	.long 0x5f500d00
   12000063f:	65 87 65 2b 	ldbu	t12,-30875(t4)
   120000643:	55 f5 cd cd 	fble	$f14,12037db9b <_end+0x371b9b>
   120000647:	28 cd 14 89 	lds	$f8,-13016(a4)
   12000064b:	41 00 1d 87 	ldg	$f24,65(gp)
   12000064f:	42 4b 72 53 	.long 0x53724b42
   120000653:	1c 78 0f 62 	.long 0x620f781c
   120000657:	87 6d 55 58 	.long 0x58556d87
   12000065b:	f7 c1 00 e8 	blt	v0,120030e3b <_end+0x24e3b>
   12000065f:	2b f4 97 49 	.long 0x4997f42b
   120000663:	78 3d b0 1b 	.long 0x1bb03d78
   120000667:	5f 97 b0 12 	.long 0x12b0975f
   12000066b:	2b ab ca 10 	.long 0x10caab2b
   12000066f:	df 16 1a f5 	bne	t7,11fe861ef <N+0x11fe85def>
   120000673:	5a f5 d9 3f 	stq_u	sp,-2726(t11)
   120000677:	33 1b 56 92 	stf	$f18,6963(t8)
   12000067b:	5b b0 02 00 	call_pal	0x2b05b
   12000067f:	0c 1d d3 c8 	fblt	$f6,11fcc7ab3 <N+0x11fcc76b3>
   120000683:	ac 39 17 66 	pal19	0x21739ac
   120000687:	32 f6 6e 6d 	pal1b	0x16ef632
   12000068b:	ec 44 60 5e 	.long 0x5e6044ec
   12000068f:	08 af 0a a6 	ldq	a0,-20728(s1)
   120000693:	69 14 01 30 	ldwu	v0,5225(t0)
   120000697:	33 0b de 1f 	.long 0x1fde0b33
   12000069b:	31 0f d3 bc 	stq_c	t5,3889(a3)
   12000069f:	00 af 4f 19 	.long 0x194faf00
   1200006a3:	56 aa 45 52 	.long 0x5245aa56
   1200006a7:	db 28 52 46 	cmovge	a2,a2,t12
   1200006ab:	7f 08 53 db 	fbge	$f26,11fcc28ab <N+0x11fcc24ab>
   1200006af:	23 00 a9 55 	subf/c	$f13,$f9,$f3
   1200006b3:	aa 35 18 21 	lda	t7,13738(t10)
   1200006b7:	12 68 91 2a 	ldbu	a4,26642(a1)
   1200006bb:	c8 22 b2 68 	jmp	t4,(a2),11fff91df <N+0x11fff8ddf>
   1200006bf:	70 2d 00 c6 	fbeq	$f16,12000bc83 <out_buffer+0x3c83>
   1200006c3:	50 b2 79 91 	stf	$f11,-19888(t11)
   1200006c7:	4a 70 31 f8 	bge	t0,11fc5c7f3 <N+0x11fc5c3f3>
   1200006cb:	51 f3 28 dd 	fbgt	$f9,12023d413 <_end+0x231413>
   1200006cf:	17 ff 17 08 	.long 0x817ff17
   1200006d3:	02 36 03 24 	ldah	v0,13826(t2)
   1200006d7:	e5 42 0a 00 	call_pal	0xa42e5

00000001200006da <array>:
   1200006da:	00 04 08 0e 	.long 0xe080400
	...
