
ll.sparc64:     file format elf32-sparc


Disassembly of section .text:

00010054 <_start>:
   10054:	05 00 00 44 	sethi  %hi(0x11000), %g2
   10058:	88 00 ab 10 	add  %g2, 0xb10, %g4	! 11b10 <out_buffer>
   1005c:	86 00 b4 f8 	add  %g2, -2824, %g3
   10060:	ac 10 23 c0 	mov  0x3c0, %l6
   10064:	ae 00 b3 d2 	add  %g2, -3118, %l7
   10068:	aa 00 b4 ed 	add  %g2, -2835, %l5
   1006c:	a8 10 00 04 	mov  %g4, %l4

00010070 <decompression_loop>:
   10070:	e6 0d c0 00 	ldub  [ %l7 ], %l3
   10074:	ae 05 e0 01 	inc  %l7
   10078:	a4 14 e1 00 	or  %l3, 0x100, %l2

0001007c <check_ctr>:
   1007c:	80 a4 a0 02 	cmp  %l2, 2
   10080:	06 bf ff fc 	bl  10070 <decompression_loop>

00010084 <test_flags>:
   10084:	80 a5 40 17 	cmp  %l5, %l7
   10088:	02 80 00 1a 	be  100f0 <done_logo>
   1008c:	80 8c a0 01 	btst  1, %l2
   10090:	12 80 00 14 	bne  100e0 <discrete_char>
   10094:	a5 34 a0 01 	srl  %l2, 1, %l2

00010098 <offset_length>:
   10098:	e6 0d c0 00 	ldub  [ %l7 ], %l3
   1009c:	e2 0d e0 01 	ldub  [ %l7 + 1 ], %l1
   100a0:	ae 05 e0 02 	add  %l7, 2, %l7
   100a4:	a3 2c 60 08 	sll  %l1, 8, %l1
   100a8:	a2 14 40 13 	or  %l1, %l3, %l1
   100ac:	a1 34 60 0a 	srl  %l1, 0xa, %l0
   100b0:	a0 04 20 03 	add  %l0, 3, %l0

000100b4 <output_loop>:
   100b4:	a2 0c 63 ff 	and  %l1, 0x3ff, %l1
   100b8:	e6 0c 40 03 	ldub  [ %l1 + %g3 ], %l3
   100bc:	a2 04 60 01 	inc  %l1

000100c0 <store_byte>:
   100c0:	e6 2d 00 00 	stb  %l3, [ %l4 ]
   100c4:	a8 05 20 01 	inc  %l4
   100c8:	e6 2d 80 03 	stb  %l3, [ %l6 + %g3 ]
   100cc:	ac 05 a0 01 	inc  %l6
   100d0:	a0 a4 20 01 	deccc  %l0
   100d4:	12 bf ff f8 	bne  100b4 <output_loop>
   100d8:	ac 0d a3 ff 	and  %l6, 0x3ff, %l6
   100dc:	30 bf ff e8 	b,a   1007c <check_ctr>

000100e0 <discrete_char>:
   100e0:	e6 0d c0 00 	ldub  [ %l7 ], %l3
   100e4:	ae 05 e0 01 	inc  %l7
   100e8:	10 bf ff f6 	b  100c0 <store_byte>
   100ec:	a0 10 20 01 	mov  1, %l0

000100f0 <done_logo>:
   100f0:	40 00 00 86 	call  10308 <write_stdout>
   100f4:	90 10 00 04 	mov  %g4, %o0

000100f8 <first_line>:
   100f8:	82 10 20 bd 	mov  0xbd, %g1
   100fc:	90 00 b9 88 	add  %g2, -1656, %o0
   10100:	91 d0 20 10 	ta  0x10
   10104:	9a 10 00 04 	mov  %g4, %o5
   10108:	40 00 00 69 	call  102ac <strcat>
   1010c:	90 00 b9 88 	add  %g2, -1656, %o0
   10110:	40 00 00 67 	call  102ac <strcat>
   10114:	90 00 b3 74 	add  %g2, -3212, %o0
   10118:	40 00 00 65 	call  102ac <strcat>
   1011c:	90 00 ba 0a 	add  %g2, -1526, %o0
   10120:	40 00 00 63 	call  102ac <strcat>
   10124:	90 00 b3 7e 	add  %g2, -3202, %o0
   10128:	40 00 00 61 	call  102ac <strcat>
   1012c:	90 00 ba 4b 	add  %g2, -1461, %o0
   10130:	40 00 00 66 	call  102c8 <center_and_print>
   10134:	94 23 40 04 	sub  %o5, %g4, %o2

00010138 <middle_line>:
   10138:	9a 10 00 04 	mov  %g4, %o5
   1013c:	82 10 20 05 	mov  5, %g1
   10140:	90 00 b3 b0 	add  %g2, -3152, %o0
   10144:	92 10 00 00 	mov  %g0, %o1
   10148:	91 d0 20 10 	ta  0x10
   1014c:	a0 10 00 08 	mov  %o0, %l0
   10150:	82 10 20 03 	mov  3, %g1
   10154:	90 10 00 10 	mov  %l0, %o0
   10158:	92 00 bb 10 	add  %g2, -1264, %o1
   1015c:	94 20 30 00 	sub  %g0, -4096, %o2
   10160:	91 d0 20 10 	ta  0x10
   10164:	90 10 00 10 	mov  %l0, %o0
   10168:	82 10 20 06 	mov  6, %g1
   1016c:	91 d0 20 10 	ta  0x10
   10170:	11 1d 1a 5d 	sethi  %hi(0x74697400), %o0
   10174:	90 12 22 65 	or  %o0, 0x265, %o0	! 74697665 <_end+0x74681b55>
   10178:	40 00 00 36 	call  10250 <find_string>
   1017c:	92 10 20 0a 	mov  0xa, %o1
   10180:	a0 23 40 04 	sub  %o5, %g4, %l0
   10184:	80 a4 20 01 	cmp  %l0, 1
   10188:	12 80 00 09 	bne  101ac <more_than_one>
   1018c:	e2 09 00 00 	ldub  [ %g4 ], %l1
   10190:	80 a4 60 31 	cmp  %l1, 0x31
   10194:	12 80 00 06 	bne  101ac <more_than_one>
   10198:	9a 10 00 04 	mov  %g4, %o5
   1019c:	40 00 00 44 	call  102ac <strcat>
   101a0:	90 00 b3 be 	add  %g2, -3138, %o0
   101a4:	10 80 00 06 	b  101bc <print_mhz>
   101a8:	ac 10 20 01 	mov  1, %l6

000101ac <more_than_one>:
   101ac:	ac 10 20 20 	mov  0x20, %l6
   101b0:	ec 2b 40 00 	stb  %l6, [ %o5 ]
   101b4:	9a 03 60 01 	inc  %o5
   101b8:	ac 10 20 00 	clr  %l6

000101bc <print_mhz>:
   101bc:	11 18 dc 1d 	sethi  %hi(0x63707400), %o0
   101c0:	90 12 21 09 	or  %o0, 0x109, %o0	! 63707509 <_end+0x636f19f9>
   101c4:	40 00 00 23 	call  10250 <find_string>
   101c8:	92 10 20 0a 	mov  0xa, %o1
   101cc:	40 00 00 38 	call  102ac <strcat>
   101d0:	90 00 b3 c3 	add  %g2, -3133, %o0
   101d4:	90 00 b3 ce 	add  %g2, -3122, %o0
   101d8:	40 00 00 35 	call  102ac <strcat>
   101dc:	90 02 00 16 	add  %o0, %l6, %o0

000101e0 <ram>:
   101e0:	82 10 20 d6 	mov  0xd6, %g1
   101e4:	90 00 b9 48 	add  %g2, -1720, %o0
   101e8:	91 d0 20 10 	ta  0x10
   101ec:	90 00 b9 48 	add  %g2, -1720, %o0
   101f0:	d0 02 20 10 	ld  [ %o0 + 0x10 ], %o0
   101f4:	91 32 20 14 	srl  %o0, 0x14, %o0
   101f8:	40 00 00 50 	call  10338 <num_to_ascii>
   101fc:	92 10 20 01 	mov  1, %o1
   10200:	40 00 00 2b 	call  102ac <strcat>
   10204:	90 00 b3 8a 	add  %g2, -3190, %o0
   10208:	11 10 9b d9 	sethi  %hi(0x426f6400), %o0
   1020c:	90 12 23 6f 	or  %o0, 0x36f, %o0	! 426f676f <_end+0x426e0c5f>
   10210:	40 00 00 10 	call  10250 <find_string>
   10214:	92 10 20 0a 	mov  0xa, %o1
   10218:	40 00 00 25 	call  102ac <strcat>
   1021c:	90 00 b3 92 	add  %g2, -3182, %o0
   10220:	40 00 00 2a 	call  102c8 <center_and_print>
   10224:	94 23 40 04 	sub  %o5, %g4, %o2

00010228 <last_line>:
   10228:	9a 10 00 04 	mov  %g4, %o5
   1022c:	40 00 00 20 	call  102ac <strcat>
   10230:	90 00 b9 c9 	add  %g2, -1591, %o0
   10234:	40 00 00 25 	call  102c8 <center_and_print>
   10238:	94 23 40 04 	sub  %o5, %g4, %o2
   1023c:	40 00 00 33 	call  10308 <write_stdout>
   10240:	90 00 b3 a4 	add  %g2, -3164, %o0

00010244 <exit>:
   10244:	90 10 20 00 	clr  %o0
   10248:	82 10 20 01 	mov  1, %g1
   1024c:	91 d0 20 10 	ta  0x10

00010250 <find_string>:
   10250:	a4 00 bb 0c 	add  %g2, -1268, %l2
   10254:	a8 10 3f ff 	mov  -1, %l4

00010258 <find_loop>:
   10258:	e6 0c a0 04 	ldub  [ %l2 + 4 ], %l3
   1025c:	a9 2d 20 08 	sll  %l4, 8, %l4
   10260:	a8 15 00 13 	or  %l4, %l3, %l4
   10264:	80 a5 00 00 	cmp  %l4, %g0
   10268:	02 80 00 17 	be  102c4 <generic_retl>
   1026c:	80 a5 00 08 	cmp  %l4, %o0
   10270:	12 bf ff fa 	bne  10258 <find_loop>
   10274:	a4 04 a0 01 	inc  %l2

00010278 <find_colon>:
   10278:	e6 0c 80 00 	ldub  [ %l2 ], %l3
   1027c:	80 a4 e0 3a 	cmp  %l3, 0x3a
   10280:	12 bf ff fe 	bne  10278 <find_colon>
   10284:	a4 04 a0 01 	inc  %l2

00010288 <store_loop>:
   10288:	a4 04 a0 01 	inc  %l2
   1028c:	e6 0c 80 00 	ldub  [ %l2 ], %l3
   10290:	80 a4 e0 00 	cmp  %l3, 0
   10294:	02 80 00 0c 	be  102c4 <generic_retl>
   10298:	80 a4 c0 09 	cmp  %l3, %o1
   1029c:	02 80 00 0a 	be  102c4 <generic_retl>
   102a0:	e6 2b 40 00 	stb  %l3, [ %o5 ]
   102a4:	10 bf ff f9 	b  10288 <store_loop>
   102a8:	9a 03 60 01 	inc  %o5

000102ac <strcat>:
   102ac:	e0 0a 00 00 	ldub  [ %o0 ], %l0
   102b0:	90 02 20 01 	inc  %o0
   102b4:	e0 2b 40 00 	stb  %l0, [ %o5 ]
   102b8:	80 a4 20 00 	cmp  %l0, 0
   102bc:	32 bf ff fc 	bne,a   102ac <strcat>
   102c0:	9a 03 60 01 	inc  %o5

000102c4 <generic_retl>:
   102c4:	81 c3 e0 08 	retl 

000102c8 <center_and_print>:
   102c8:	80 a2 a0 50 	cmp  %o2, 0x50
   102cc:	9d e3 bf 80 	save  %sp, -128, %sp
   102d0:	14 80 00 0a 	bg  102f8 <done_center>
   102d4:	92 10 20 00 	clr  %o1
   102d8:	b4 20 00 1a 	neg  %i2
   102dc:	b4 06 a0 50 	add  %i2, 0x50, %i2
   102e0:	40 00 00 0a 	call  10308 <write_stdout>
   102e4:	90 00 b3 ab 	add  %g2, -3157, %o0
   102e8:	40 00 00 14 	call  10338 <num_to_ascii>
   102ec:	91 36 a0 01 	srl  %i2, 1, %o0
   102f0:	40 00 00 06 	call  10308 <write_stdout>
   102f4:	90 00 b3 ae 	add  %g2, -3154, %o0

000102f8 <done_center>:
   102f8:	40 00 00 04 	call  10308 <write_stdout>
   102fc:	90 10 00 04 	mov  %g4, %o0
   10300:	10 80 00 03 	b  1030c <write_stdout_saved>
   10304:	b0 00 b3 a2 	add  %g2, -3166, %i0

00010308 <write_stdout>:
   10308:	9d e3 bf 80 	save  %sp, -128, %sp

0001030c <write_stdout_saved>:
   1030c:	92 10 00 18 	mov  %i0, %o1
   10310:	82 10 20 04 	mov  4, %g1
   10314:	90 10 20 01 	mov  1, %o0
   10318:	94 10 20 00 	clr  %o2

0001031c <str_loop1>:
   1031c:	e0 0a 40 0a 	ldub  [ %o1 + %o2 ], %l0
   10320:	80 a4 00 00 	cmp  %l0, %g0
   10324:	32 bf ff fe 	bne,a   1031c <str_loop1>
   10328:	94 02 a0 01 	inc  %o2
   1032c:	91 d0 20 10 	ta  0x10
   10330:	81 c7 e0 08 	ret 
   10334:	81 e8 00 00 	restore 

00010338 <num_to_ascii>:
   10338:	9d e3 bf 80 	save  %sp, -128, %sp
   1033c:	a0 00 b9 42 	add  %g2, -1726, %l0

00010340 <div_by_10>:
   10340:	a0 24 20 01 	dec  %l0
   10344:	ae f6 20 0a 	udivcc  %i0, 0xa, %l7
   10348:	ac 55 e0 0a 	umul  %l7, 0xa, %l6
   1034c:	ac 26 00 16 	sub  %i0, %l6, %l6
   10350:	ac 05 a0 30 	add  %l6, 0x30, %l6
   10354:	ec 2c 00 00 	stb  %l6, [ %l0 ]
   10358:	12 bf ff fa 	bne  10340 <div_by_10>
   1035c:	b0 10 00 17 	mov  %l7, %i0

00010360 <write_out>:
   10360:	80 a6 60 01 	cmp  %i1, 1
   10364:	12 bf ff ea 	bne  1030c <write_stdout_saved>
   10368:	b0 10 00 10 	mov  %l0, %i0
   1036c:	10 bf ff d0 	b  102ac <strcat>
   10370:	81 e8 00 00 	restore 
