
ll.x86_64:     file format elf64-x86-64


Disassembly of section .text:

0000000000400078 <_start>:
  400078:	66 bd c0 03          	mov    $0x3c0,%bp
  40007c:	be e8 02 40 00       	mov    $0x4002e8,%esi
  400081:	bf 08 04 40 00       	mov    $0x400408,%edi
  400086:	48 8d 24 6c          	lea    (%rsp,%rbp,2),%rsp

000000000040008a <decompression_loop>:
  40008a:	ac                   	lods   %ds:(%rsi),%al
  40008b:	b7 ff                	mov    $0xff,%bh
  40008d:	88 c3                	mov    %al,%bl

000000000040008f <test_flags>:
  40008f:	81 fe 03 04 40 00    	cmp    $0x400403,%esi
  400095:	74 2f                	je     4000c6 <done_logo>
  400097:	d1 eb                	shr    %ebx
  400099:	72 26                	jb     4000c1 <discrete_char>

000000000040009b <offset_length>:
  40009b:	66 ad                	lods   %ds:(%rsi),%ax
  40009d:	89 c2                	mov    %eax,%edx
  40009f:	c1 e8 0a             	shr    $0xa,%eax
  4000a2:	04 03                	add    $0x3,%al
  4000a4:	88 c1                	mov    %al,%cl

00000000004000a6 <output_loop>:
  4000a6:	80 e6 03             	and    $0x3,%dh
  4000a9:	8a 04 14             	mov    (%rsp,%rdx,1),%al
  4000ac:	ff c2                	inc    %edx

00000000004000ae <store_byte>:
  4000ae:	aa                   	stos   %al,%es:(%rdi)
  4000af:	88 04 2c             	mov    %al,(%rsp,%rbp,1)
  4000b2:	ff c5                	inc    %ebp
  4000b4:	66 81 e5 ff 03       	and    $0x3ff,%bp
  4000b9:	e2 eb                	loop   4000a6 <output_loop>
  4000bb:	08 ff                	or     %bh,%bh
  4000bd:	75 d0                	jne    40008f <test_flags>
  4000bf:	eb c9                	jmp    40008a <decompression_loop>

00000000004000c1 <discrete_char>:
  4000c1:	ac                   	lods   %ds:(%rsi),%al
  4000c2:	ff c1                	inc    %ecx
  4000c4:	eb e8                	jmp    4000ae <store_byte>

00000000004000c6 <done_logo>:
  4000c6:	bd 08 04 40 00       	mov    $0x400408,%ebp
  4000cb:	89 e9                	mov    %ebp,%ecx
  4000cd:	e8 81 01 00 00       	callq  400253 <write_stdout>

00000000004000d2 <setup>:
  4000d2:	ba 17 02 40 00       	mov    $0x400217,%edx
  4000d7:	6a 3f                	pushq  $0x3f
  4000d9:	58                   	pop    %rax
  4000da:	bf 88 54 40 00       	mov    $0x405488,%edi
  4000df:	0f 05                	syscall 
  4000e1:	89 ef                	mov    %ebp,%edi
  4000e3:	be 88 54 40 00       	mov    $0x405488,%esi
  4000e8:	ff d2                	callq  *%rdx
  4000ea:	be 7e 02 40 00       	mov    $0x40027e,%esi
  4000ef:	ff d2                	callq  *%rdx
  4000f1:	56                   	push   %rsi
  4000f2:	be 0a 55 40 00       	mov    $0x40550a,%esi
  4000f7:	ff d2                	callq  *%rdx
  4000f9:	5e                   	pop    %rsi
  4000fa:	ff d2                	callq  *%rdx
  4000fc:	56                   	push   %rsi
  4000fd:	be 4b 55 40 00       	mov    $0x40554b,%esi
  400102:	ff d2                	callq  *%rdx
  400104:	89 e9                	mov    %ebp,%ecx
  400106:	66 b8 0a 00          	mov    $0xa,%ax
  40010a:	66 ab                	stos   %ax,%es:(%rdi)
  40010c:	ff d2                	callq  *%rdx
  40010e:	e8 0d 01 00 00       	callq  400220 <center_and_print>

0000000000400113 <middle_line>:
  400113:	52                   	push   %rdx
  400114:	6a 02                	pushq  $0x2
  400116:	58                   	pop    %rax
  400117:	bf c3 02 40 00       	mov    $0x4002c3,%edi
  40011c:	31 f6                	xor    %esi,%esi
  40011e:	99                   	cltd   
  40011f:	0f 05                	syscall 
  400121:	89 c7                	mov    %eax,%edi
  400123:	31 c0                	xor    %eax,%eax
  400125:	be 08 44 40 00       	mov    $0x404408,%esi
  40012a:	b6 10                	mov    $0x10,%dh
  40012c:	0f 05                	syscall 
  40012e:	6a 03                	pushq  $0x3
  400130:	58                   	pop    %rax
  400131:	0f 05                	syscall 

0000000000400133 <number_of_cpus>:
  400133:	31 db                	xor    %ebx,%ebx

0000000000400135 <bogo_loop>:
  400135:	8b 06                	mov    (%rsi),%eax
  400137:	ff c6                	inc    %esi
  400139:	3c 00                	cmp    $0x0,%al
  40013b:	74 0c                	je     400149 <done_bogo>
  40013d:	3d 62 6f 67 6f       	cmp    $0x6f676f62,%eax
  400142:	75 f1                	jne    400135 <bogo_loop>
  400144:	83 c3 02             	add    $0x2,%ebx
  400147:	eb ec                	jmp    400135 <bogo_loop>

0000000000400149 <done_bogo>:
  400149:	8d b4 5b cb 02 40 00 	lea    0x4002cb(%rbx,%rbx,2),%esi
  400150:	89 ef                	mov    %ebp,%edi
  400152:	5a                   	pop    %rdx
  400153:	ff d2                	callq  *%rdx
  400155:	b0 20                	mov    $0x20,%al
  400157:	aa                   	stos   %al,%es:(%rdi)
  400158:	53                   	push   %rbx
  400159:	52                   	push   %rdx

000000000040015a <print_mhz>:
  40015a:	bb 20 4d 48 7a       	mov    $0x7a484d20,%ebx
  40015f:	b4 2e                	mov    $0x2e,%ah
  400161:	83 ea 32             	sub    $0x32,%edx
  400164:	ff d2                	callq  *%rdx
  400166:	89 d8                	mov    %ebx,%eax
  400168:	c1 c8 08             	ror    $0x8,%eax
  40016b:	ab                   	stos   %eax,%es:(%rdi)

000000000040016c <chip_name>:
  40016c:	bb 6e 61 6d 65       	mov    $0x656d616e,%ebx
  400171:	b4 20                	mov    $0x20,%ah
  400173:	ff d2                	callq  *%rdx
  400175:	aa                   	stos   %al,%es:(%rdi)
  400176:	e8 83 00 00 00       	callq  4001fe <skip_spaces>
  40017b:	5a                   	pop    %rdx
  40017c:	5b                   	pop    %rbx
  40017d:	5e                   	pop    %rsi
  40017e:	ff d2                	callq  *%rdx
  400180:	80 fb 02             	cmp    $0x2,%bl
  400183:	75 03                	jne    400188 <print_s>
  400185:	48 ff c6             	inc    %rsi

0000000000400188 <print_s>:
  400188:	ff d2                	callq  *%rdx
  40018a:	56                   	push   %rsi
  40018b:	52                   	push   %rdx
  40018c:	57                   	push   %rdi
  40018d:	6a 63                	pushq  $0x63
  40018f:	58                   	pop    %rax
  400190:	bf 08 54 40 00       	mov    $0x405408,%edi
  400195:	0f 05                	syscall 
  400197:	5f                   	pop    %rdi
  400198:	48 8b 04 25 28 54 40 	mov    0x405428,%rax
  40019f:	00 
  4001a0:	48 c1 e8 14          	shr    $0x14,%rax
  4001a4:	83 d0 00             	adc    $0x0,%eax
  4001a7:	e8 bc 00 00 00       	callq  400268 <num_to_ascii>
  4001ac:	5a                   	pop    %rdx
  4001ad:	5e                   	pop    %rsi
  4001ae:	ff d2                	callq  *%rdx
  4001b0:	56                   	push   %rsi
  4001b1:	bb 6d 69 70 73       	mov    $0x7370696d,%ebx
  4001b6:	b4 0a                	mov    $0xa,%ah
  4001b8:	e8 28 00 00 00       	callq  4001e5 <find_string>
  4001bd:	5e                   	pop    %rsi
  4001be:	ff d2                	callq  *%rdx
  4001c0:	56                   	push   %rsi
  4001c1:	89 e9                	mov    %ebp,%ecx
  4001c3:	51                   	push   %rcx
  4001c4:	e8 57 00 00 00       	callq  400220 <center_and_print>

00000000004001c9 <last_line>:
  4001c9:	89 ef                	mov    %ebp,%edi
  4001cb:	be c9 54 40 00       	mov    $0x4054c9,%esi
  4001d0:	ff d2                	callq  *%rdx
  4001d2:	59                   	pop    %rcx
  4001d3:	e8 48 00 00 00       	callq  400220 <center_and_print>
  4001d8:	59                   	pop    %rcx
  4001d9:	e8 75 00 00 00       	callq  400253 <write_stdout>

00000000004001de <exit>:
  4001de:	6a 3c                	pushq  $0x3c
  4001e0:	58                   	pop    %rax
  4001e1:	31 ff                	xor    %edi,%edi
  4001e3:	0f 05                	syscall 

00000000004001e5 <find_string>:
  4001e5:	be 07 44 40 00       	mov    $0x404407,%esi

00000000004001ea <find_loop>:
  4001ea:	ff c6                	inc    %esi
  4001ec:	80 3e 00             	cmpb   $0x0,(%rsi)
  4001ef:	74 25                	je     400216 <done>
  4001f1:	3b 1e                	cmp    (%rsi),%ebx
  4001f3:	75 f5                	jne    4001ea <find_loop>

00000000004001f5 <find_colon>:
  4001f5:	ac                   	lods   %ds:(%rsi),%al
  4001f6:	3c 00                	cmp    $0x0,%al
  4001f8:	74 1c                	je     400216 <done>
  4001fa:	3c 3a                	cmp    $0x3a,%al
  4001fc:	75 f7                	jne    4001f5 <find_colon>

00000000004001fe <skip_spaces>:
  4001fe:	ac                   	lods   %ds:(%rsi),%al
  4001ff:	3c 20                	cmp    $0x20,%al
  400201:	74 fb                	je     4001fe <skip_spaces>

0000000000400203 <store_loop>:
  400203:	3c 00                	cmp    $0x0,%al
  400205:	74 0f                	je     400216 <done>
  400207:	38 e0                	cmp    %ah,%al
  400209:	74 08                	je     400213 <almost_done>
  40020b:	3c 0a                	cmp    $0xa,%al
  40020d:	74 04                	je     400213 <almost_done>
  40020f:	aa                   	stos   %al,%es:(%rdi)
  400210:	ac                   	lods   %ds:(%rsi),%al
  400211:	eb f0                	jmp    400203 <store_loop>

0000000000400213 <almost_done>:
  400213:	c6 07 00             	movb   $0x0,(%rdi)

0000000000400216 <done>:
  400216:	c3                   	retq   

0000000000400217 <strcat>:
  400217:	ac                   	lods   %ds:(%rsi),%al
  400218:	aa                   	stos   %al,%es:(%rdi)
  400219:	3c 00                	cmp    $0x0,%al
  40021b:	75 fa                	jne    400217 <strcat>
  40021d:	ff cf                	dec    %edi
  40021f:	c3                   	retq   

0000000000400220 <center_and_print>:
  400220:	52                   	push   %rdx
  400221:	51                   	push   %rcx
  400222:	ff c7                	inc    %edi
  400224:	57                   	push   %rdi
  400225:	66 b8 1b 5b          	mov    $0x5b1b,%ax
  400229:	66 ab                	stos   %ax,%es:(%rdi)
  40022b:	99                   	cltd   

000000000040022c <str_loop2>:
  40022c:	ff c2                	inc    %edx
  40022e:	80 3c 11 00          	cmpb   $0x0,(%rcx,%rdx,1)
  400232:	75 f8                	jne    40022c <str_loop2>
  400234:	6a 51                	pushq  $0x51
  400236:	58                   	pop    %rax
  400237:	39 c2                	cmp    %eax,%edx
  400239:	7c 03                	jl     40023e <not_too_big>
  40023b:	6a 50                	pushq  $0x50
  40023d:	5a                   	pop    %rdx

000000000040023e <not_too_big>:
  40023e:	29 d0                	sub    %edx,%eax
  400240:	d1 e8                	shr    %eax
  400242:	e8 21 00 00 00       	callq  400268 <num_to_ascii>
  400247:	b0 43                	mov    $0x43,%al
  400249:	66 ab                	stos   %ax,%es:(%rdi)
  40024b:	59                   	pop    %rcx
  40024c:	e8 02 00 00 00       	callq  400253 <write_stdout>

0000000000400251 <done_center>:
  400251:	59                   	pop    %rcx
  400252:	5a                   	pop    %rdx

0000000000400253 <write_stdout>:
  400253:	52                   	push   %rdx
  400254:	6a 01                	pushq  $0x1
  400256:	58                   	pop    %rax
  400257:	99                   	cltd   
  400258:	8d 7a 01             	lea    0x1(%rdx),%edi
  40025b:	89 ce                	mov    %ecx,%esi

000000000040025d <str_loop1>:
  40025d:	ff c2                	inc    %edx
  40025f:	38 24 11             	cmp    %ah,(%rcx,%rdx,1)
  400262:	75 f9                	jne    40025d <str_loop1>
  400264:	0f 05                	syscall 
  400266:	5a                   	pop    %rdx
  400267:	c3                   	retq   

0000000000400268 <num_to_ascii>:
  400268:	6a 0a                	pushq  $0xa
  40026a:	5b                   	pop    %rbx
  40026b:	31 c9                	xor    %ecx,%ecx

000000000040026d <div_by_10>:
  40026d:	99                   	cltd   
  40026e:	f7 f3                	div    %ebx
  400270:	52                   	push   %rdx
  400271:	ff c1                	inc    %ecx
  400273:	09 c0                	or     %eax,%eax
  400275:	75 f6                	jne    40026d <div_by_10>

0000000000400277 <write_out>:
  400277:	58                   	pop    %rax
  400278:	04 30                	add    $0x30,%al
  40027a:	aa                   	stos   %al,%es:(%rdi)
  40027b:	e2 fa                	loop   400277 <write_out>
  40027d:	c3                   	retq   

Disassembly of section .data:

000000000040027e <ver_string>:
  40027e:	20 56              	and    %dl,0x65(%rsi)

0000000000400280 <_GLOBAL_OFFSET_TABLE_>:
  400280:	65 72 73             	gs jb  4002f6 <logo+0xe>
  400283:	69 6f 6e 20 00   	imul   $0x202c0020,0x6e(%rdi),%ebp

0000000000400288 <compiled_string>:
  400288:	2c 20                	sub    $0x20,%al
  40028a:	43 6f                	rex.XB outsl %ds:(%rsi),(%dx)
  40028c:	6d                   	insl   (%dx),%es:(%rdi)
  40028d:	70 69                	jo     4002f8 <logo+0x10>
  40028f:	6c                   	insb   (%dx),%es:(%rdi)
  400290:	65 64 20 00          	gs and %al,%fs:(%rax)

0000000000400294 <processor>:
  400294:	20 50 72             	and    %dl,0x72(%rax)
  400297:	6f                   	outsl  %ds:(%rsi),(%dx)
  400298:	63 65 73             	movslq 0x73(%rbp),%esp
  40029b:	73 6f                	jae    40030c <logo+0x24>
  40029d:	72 00                	jb     40029f <s_comma>

000000000040029f <s_comma>:
  40029f:	73 2c                	jae    4002cd <cpuinfo+0xa>
  4002a1:	20 00                	and    %al,(%rax)

00000000004002a3 <ram_comma>:
  4002a3:	4d 20 52 41          	rex.WRB and %r10b,0x41(%r10)
  4002a7:	4d 2c 20             	rex.WRB sub $0x20,%al
	...

00000000004002ab <bogo_total>:
  4002ab:	20 42 6f             	and    %al,0x6f(%rdx)
  4002ae:	67 6f                	outsl  %ds:(%esi),(%dx)
  4002b0:	6d                   	insl   (%dx),%es:(%rdi)
  4002b1:	69 70 73 20 54 6f 74 	imul   $0x746f5420,0x73(%rax),%esi
  4002b8:	61                   	(bad)  
  4002b9:	6c                   	insb   (%dx),%es:(%rdi)
  4002ba:	0a 00                	or     (%rax),%al

00000000004002bc <default_colors>:
  4002bc:	1b 5b 30             	sbb    0x30(%rbx),%ebx
  4002bf:	6d                   	insl   (%dx),%es:(%rdi)
  4002c0:	0a 0a                	or     (%rdx),%cl
	...

00000000004002c3 <cpuinfo>:
  4002c3:	2f                   	(bad)  
  4002c4:	70 72                	jo     400338 <logo+0x50>
  4002c6:	6f                   	outsl  %ds:(%rsi),(%dx)
  4002c7:	63 2f                	movslq (%rdi),%ebp
  4002c9:	63 70 75             	movslq 0x75(%rax),%esi
  4002cc:	69 6e 66 6f 00   	imul   $0x6e4f006f,0x66(%rsi),%ebp

00000000004002d1 <one>:
  4002d1:	4f 6e                	rex.WRXB outsb %ds:(%rsi),(%dx)
  4002d3:	65 00 00             	add    %al,%gs:(%rax)
	...

00000000004002d7 <two>:
  4002d7:	54                   	push   %rsp
  4002d8:	77 6f                	ja     400349 <logo+0x61>
  4002da:	00 00                	add    %al,(%rax)
	...

00000000004002dd <three>:
  4002dd:	54                   	push   %rsp
  4002de:	68 72 65 65 00       	pushq  $0x656572

00000000004002e3 <four>:
  4002e3:	46 6f                	rex.RX outsl %ds:(%rsi),(%dx)
  4002e5:	75 72                	jne    400359 <logo+0x71>
	...

00000000004002e8 <logo>:
  4002e8:	ff 1b                	lcall  *(%rbx)
  4002ea:	5b                   	pop    %rbx
  4002eb:	30 3b                	xor    %bh,(%rbx)
  4002ed:	31 3b                	xor    %edi,(%rbx)
  4002ef:	33 37                	xor    (%rdi),%esi
  4002f1:	9f                   	lahf   
  4002f2:	3b 34 37             	cmp    (%rdi,%rsi,1),%esi
  4002f5:	6d                   	insl   (%dx),%es:(%rdi)
  4002f6:	23 cc                	and    %esp,%ecx
  4002f8:	f7 c0 07 33 8d 30    	test   $0x308d3307,%eax
  4002fe:	c8 1b 1b 5b          	enterq $0x1b1b,$0x5b
  400302:	c4                   	(bad)  
  400303:	07                   	(bad)  
  400304:	cb                   	lret   
  400305:	1f                   	(bad)  
  400306:	1c 0c                	sbb    $0xc,%al
  400308:	3b 0f                	cmp    (%rdi),%ecx
  40030a:	34 30                	xor    $0x30,%al
  40030c:	6d                   	insl   (%dx),%es:(%rdi)
  40030d:	0a c0                	or     %al,%al
  40030f:	f7 01 60 1a 38 2c    	testl  $0x2c381a60,(%rcx)
  400315:	9c                   	pushfq 
  400316:	1f                   	(bad)  
  400317:	1b 5b 33             	sbb    0x33(%rbx),%ebx
  40031a:	31 6d cc             	xor    %ebp,-0x34(%rbp)
  40031d:	04 41                	add    $0x41,%al
  40031f:	ac                   	lods   %ds:(%rsi),%al
  400320:	0d 24 02 1c 10       	or     $0x101c0224,%eax
  400325:	4f 0d 20 10 41 93    	rex.WRXB or $0xffffffff93411020,%rax
  40032b:	98                   	cwtl   
  40032c:	83 34 1c 34          	xorl   $0x34,(%rsp,%rbx,1)
  400330:	cc                   	int3   
  400331:	10 10                	adc    %dl,(%rax)
  400333:	0c 24                	or     $0x24,%al
  400335:	6f                   	outsl  %ds:(%rsi),(%dx)
  400336:	39 ec                	cmp    %ebp,%esp
  400338:	a7                   	cmpsl  %es:(%rdi),%ds:(%rsi)
  400339:	1c 08                	sbb    $0x8,%al
  40033b:	33 16                	xor    (%rsi),%edx
  40033d:	14 89                	adc    $0x89,%al
  40033f:	55                   	push   %rbp
  400340:	2c 60                	sub    $0x60,%al
  400342:	00 2b                	add    %ch,(%rbx)
  400344:	61                   	(bad)  
  400345:	d6                   	(bad)  
  400346:	71 e2                	jno    40032a <logo+0x42>
  400348:	c8 cb 08 d4          	enterq $0x8cb,$0xd4
  40034c:	09 d3                	or     %edx,%ebx
  40034e:	10 2b                	adc    %ch,(%rbx)
  400350:	59                   	pop    %rcx
  400351:	f5                   	cmc    
  400352:	d1 00                	roll   (%rax)
  400354:	80 11 d2             	adcb   $0xd2,(%rcx)
  400357:	18 0d 28 1c 14 0d    	sbb    %cl,0xd141c28(%rip)        # d541f85 <_end+0xd13c975>
  40035d:	2c 1c                	sub    $0x1c,%al
  40035f:	1c f0                	sbb    $0xf0,%al
  400361:	4a 1a 5b 00          	rex.WX sbb 0x0(%rbx),%bl
  400365:	0d 50 5f 65 87       	or     $0x87655f50,%eax
  40036a:	65 2b 55 f5          	sub    %gs:-0xb(%rbp),%edx
  40036e:	cd cd                	int    $0xcd
  400370:	28 cd                	sub    %cl,%ch
  400372:	14 89                	adc    $0x89,%al
  400374:	41 00 1d 87 42 4b 72 	add    %bl,0x724b4287(%rip)        # 728b4602 <_end+0x724aeff2>
  40037b:	53                   	push   %rbx
  40037c:	1c 78                	sbb    $0x78,%al
  40037e:	0f 62 87 6d 55 58 f7 	punpckldq -0x8a7aa93(%rdi),%mm0
  400385:	c1 00 e8             	roll   $0xe8,(%rax)
  400388:	2b f4                	sub    %esp,%esi
  40038a:	97                   	xchg   %eax,%edi
  40038b:	49 78 3d             	rex.WB js 4003cb <logo+0xe3>
  40038e:	b0 1b                	mov    $0x1b,%al
  400390:	5f                   	pop    %rdi
  400391:	97                   	xchg   %eax,%edi
  400392:	b0 12                	mov    $0x12,%al
  400394:	2b ab ca 10 df 16    	sub    0x16df10ca(%rbx),%ebp
  40039a:	1a f5                	sbb    %ch,%dh
  40039c:	5a                   	pop    %rdx
  40039d:	f5                   	cmc    
  40039e:	d9 3f                	fnstcw (%rdi)
  4003a0:	33 1b                	xor    (%rbx),%ebx
  4003a2:	56                   	push   %rsi
  4003a3:	92                   	xchg   %eax,%edx
  4003a4:	5b                   	pop    %rbx
  4003a5:	b0 02                	mov    $0x2,%al
  4003a7:	00 0c 1d d3 c8 ac 39 	add    %cl,0x39acc8d3(,%rbx,1)
  4003ae:	17                   	(bad)  
  4003af:	66 32 f6             	data16 xor %dh,%dh
  4003b2:	6e                   	outsb  %ds:(%rsi),(%dx)
  4003b3:	6d                   	insl   (%dx),%es:(%rdi)
  4003b4:	ec                   	in     (%dx),%al
  4003b5:	44 60                	rex.R (bad) 
  4003b7:	5e                   	pop    %rsi
  4003b8:	08 af 0a a6 69 14    	or     %ch,0x1469a60a(%rdi)
  4003be:	01 30                	add    %esi,(%rax)
  4003c0:	33 0b                	xor    (%rbx),%ecx
  4003c2:	de 1f                	ficomp (%rdi)
  4003c4:	31 0f                	xor    %ecx,(%rdi)
  4003c6:	d3 bc 00 af 4f 19 56 	sarl   %cl,0x56194faf(%rax,%rax,1)
  4003cd:	aa                   	stos   %al,%es:(%rdi)
  4003ce:	45 52                	rex.RB push %r10
  4003d0:	db 28                	fldt   (%rax)
  4003d2:	52                   	push   %rdx
  4003d3:	46 7f 08             	rex.RX jg 4003de <logo+0xf6>
  4003d6:	53                   	push   %rbx
  4003d7:	db 23                	(bad)  (%rbx)
  4003d9:	00 a9 55 aa 35 18    	add    %ch,0x1835aa55(%rcx)
  4003df:	21 12                	and    %edx,(%rdx)
  4003e1:	68 91 2a c8 22       	pushq  $0x22c82a91
  4003e6:	b2 68                	mov    $0x68,%dl
  4003e8:	70 2d                	jo     400417 <out_buffer+0xf>
  4003ea:	00 c6                	add    %al,%dh
  4003ec:	50                   	push   %rax
  4003ed:	b2 79                	mov    $0x79,%dl
  4003ef:	91                   	xchg   %eax,%ecx
  4003f0:	4a 70 31             	rex.WX jo 400424 <out_buffer+0x1c>
  4003f3:	f8                   	clc    
  4003f4:	51                   	push   %rcx
  4003f5:	f3 28 dd             	repz sub %bl,%ch
  4003f8:	17                   	(bad)  
  4003f9:	ff 17                	callq  *(%rdi)
  4003fb:	08 02                	or     %al,(%rdx)
  4003fd:	36                   	ss
  4003fe:	03                   	.byte 0x3
  4003ff:	24 e5                	and    $0xe5,%al
  400401:	42                   	rex.X
  400402:	0a                   	.byte 0xa

Disassembly of section .bss:

0000000000400408 <out_buffer>:
	...

0000000000404408 <disk_buffer>:
	...

0000000000405408 <sysinfo_buff>:
	...

0000000000405488 <uname_info>:
	...
