
ll.x86_64:     file format elf64-x86-64


Disassembly of section .text:

0000000000400078 <_start>:
  400078:	66 bd c0 03          	mov    $0x3c0,%bp
  40007c:	be e8 02 40 00       	mov    $0x4002e8,%esi
  400081:	bf 08 04 40 00       	mov    $0x400408,%edi
  400086:	48 8d 24 6c          	lea    (%rsp,%rbp,2),%rsp

000000000040008a <decompression_loop>:
  40008a:	ac                   	lods   %ds:(%rsi),%al
  40008b:	b7 ff                	mov    $0xff,%bh
  40008d:	88 c3                	mov    %al,%bl

000000000040008f <test_flags>:
  40008f:	81 fe 03 04 40 00    	cmp    $0x400403,%esi
  400095:	74 2f                	je     4000c6 <done_logo>
  400097:	d1 eb                	shr    %ebx
  400099:	72 26                	jb     4000c1 <discrete_char>

000000000040009b <offset_length>:
  40009b:	66 ad                	lods   %ds:(%rsi),%ax
  40009d:	89 c2                	mov    %eax,%edx
  40009f:	c1 e8 0a             	shr    $0xa,%eax
  4000a2:	04 03                	add    $0x3,%al
  4000a4:	88 c1                	mov    %al,%cl

00000000004000a6 <output_loop>:
  4000a6:	80 e6 03             	and    $0x3,%dh
  4000a9:	8a 04 14             	mov    (%rsp,%rdx,1),%al
  4000ac:	ff c2                	inc    %edx

00000000004000ae <store_byte>:
  4000ae:	aa                   	stos   %al,%es:(%rdi)
  4000af:	88 04 2c             	mov    %al,(%rsp,%rbp,1)
  4000b2:	ff c5                	inc    %ebp
  4000b4:	66 81 e5 ff 03       	and    $0x3ff,%bp
  4000b9:	e2 eb                	loop   4000a6 <output_loop>
  4000bb:	08 ff                	or     %bh,%bh
  4000bd:	75 d0                	jne    40008f <test_flags>
  4000bf:	eb c9                	jmp    40008a <decompression_loop>

00000000004000c1 <discrete_char>:
  4000c1:	ac                   	lods   %ds:(%rsi),%al
  4000c2:	ff c1                	inc    %ecx
  4000c4:	eb e8                	jmp    4000ae <store_byte>

00000000004000c6 <done_logo>:
  4000c6:	bd 08 04 40 00       	mov    $0x400408,%ebp
  4000cb:	89 e9                	mov    %ebp,%ecx
  4000cd:	e8 81 01 00 00       	callq  400253 <write_stdout>

00000000004000d2 <setup>:
  4000d2:	ba 17 02 40 00       	mov    $0x400217,%edx
  4000d7:	6a 3f                	pushq  $0x3f
  4000d9:	58                   	pop    %rax
  4000da:	bf 88 54 40 00       	mov    $0x405488,%edi
  4000df:	0f 05                	syscall 
  4000e1:	89 ef                	mov    %ebp,%edi
  4000e3:	be 88 54 40 00       	mov    $0x405488,%esi
  4000e8:	ff d2                	callq  *%rdx
  4000ea:	be 7e 02 40 00       	mov    $0x40027e,%esi
  4000ef:	ff d2                	callq  *%rdx
  4000f1:	56                   	push   %rsi
  4000f2:	be 0a 55 40 00       	mov    $0x40550a,%esi
  4000f7:	ff d2                	callq  *%rdx
  4000f9:	5e                   	pop    %rsi
  4000fa:	ff d2                	callq  *%rdx
  4000fc:	56                   	push   %rsi
  4000fd:	be 4b 55 40 00       	mov    $0x40554b,%esi
  400102:	ff d2                	callq  *%rdx
  400104:	89 e9                	mov    %ebp,%ecx
  400106:	66 b8 0a 00          	mov    $0xa,%ax
  40010a:	66 ab                	stos   %ax,%es:(%rdi)
  40010c:	ff d2                	callq  *%rdx
  40010e:	e8 0d 01 00 00       	callq  400220 <center_and_print>

0000000000400113 <middle_line>:
  400113:	52                   	push   %rdx
  400114:	6a 02                	pushq  $0x2
  400116:	58                   	pop    %rax
  400117:	bf c3 02 40 00       	mov    $0x4002c3,%edi
  40011c:	31 f6                	xor    %esi,%esi
  40011e:	99                   	cltd   
  40011f:	0f 05                	syscall 
  400121:	89 c7                	mov    %eax,%edi
  400123:	31 c0                	xor    %eax,%eax
  400125:	be 08 44 40 00       	mov    $0x404408,%esi
  40012a:	b6 10                	mov    $0x10,%dh
  40012c:	0f 05                	syscall 
  40012e:	6a 03                	pushq  $0x3
  400130:	58                   	pop    %rax
  400131:	0f 05                	syscall 

0000000000400133 <number_of_cpus>:
  400133:	31 db                	xor    %ebx,%ebx

0000000000400135 <bogo_loop>:
  400135:	8b 06                	mov    (%rsi),%eax
  400137:	ff c6                	inc    %esi
  400139:	3c 00                	cmp    $0x0,%al
  40013b:	74 0c                	je     400149 <done_bogo>
  40013d:	3d 62 6f 67 6f       	cmp    $0x6f676f62,%eax
  400142:	75 f1                	jne    400135 <bogo_loop>
  400144:	83 c3 02             	add    $0x2,%ebx
  400147:	eb ec                	jmp    400135 <bogo_loop>

0000000000400149 <done_bogo>:
  400149:	8d b4 5b cb 02 40 00 	lea    0x4002cb(%rbx,%rbx,2),%esi
  400150:	89 ef                	mov    %ebp,%edi
  400152:	5a                   	pop    %rdx
  400153:	ff d2                	callq  *%rdx
  400155:	b0 20                	mov    $0x20,%al
  400157:	aa                   	stos   %al,%es:(%rdi)
  400158:	53                   	push   %rbx
  400159:	52                   	push   %rdx

000000000040015a <print_mhz>:
  40015a:	bb 20 4d 48 7a       	mov    $0x7a484d20,%ebx
  40015f:	b4 2e                	mov    $0x2e,%ah
  400161:	83 ea 32             	sub    $0x32,%edx
  400164:	ff d2                	callq  *%rdx
  400166:	89 d8                	mov    %ebx,%eax
  400168:	c1 c8 08             	ror    $0x8,%eax
  40016b:	ab                   	stos   %eax,%es:(%rdi)

000000000040016c <chip_name>:
  40016c:	bb 6e 61 6d 65       	mov    $0x656d616e,%ebx
  400171:	b4 20                	mov    $0x20,%ah
  400173:	ff d2                	callq  *%rdx
  400175:	aa                   	stos   %al,%es:(%rdi)
  400176:	e8 83 00 00 00       	callq  4001fe <skip_spaces>
  40017b:	5a                   	pop    %rdx
  40017c:	5b                   	pop    %rbx
  40017d:	5e                   	pop    %rsi
  40017e:	ff d2                	callq  *%rdx
  400180:	80 fb 02             	cmp    $0x2,%bl
  400183:	75 03                	jne    400188 <print_s>
  400185:	48 ff c6             	inc    %rsi

0000000000400188 <print_s>:
  400188:	ff d2                	callq  *%rdx
  40018a:	56                   	push   %rsi
  40018b:	52                   	push   %rdx
  40018c:	57                   	push   %rdi
  40018d:	6a 63                	pushq  $0x63
  40018f:	58                   	pop    %rax
  400190:	bf 08 54 40 00       	mov    $0x405408,%edi
  400195:	0f 05                	syscall 
  400197:	5f                   	pop    %rdi
  400198:	48 8b 04 25 28 54 40 	mov    0x405428,%rax
  40019f:	00 
  4001a0:	48 c1 e8 14          	shr    $0x14,%rax
  4001a4:	83 d0 00             	adc    $0x0,%eax
  4001a7:	e8 bc 00 00 00       	callq  400268 <num_to_ascii>
  4001ac:	5a                   	pop    %rdx
  4001ad:	5e                   	pop    %rsi
  4001ae:	ff d2                	callq  *%rdx
  4001b0:	56                   	push   %rsi
  4001b1:	bb 6d 69 70 73       	mov    $0x7370696d,%ebx
  4001b6:	b4 0a                	mov    $0xa,%ah
  4001b8:	e8 28 00 00 00       	callq  4001e5 <find_string>
  4001bd:	5e                   	pop    %rsi
  4001be:	ff d2                	callq  *%rdx
  4001c0:	56                   	push   %rsi
  4001c1:	89 e9                	mov    %ebp,%ecx
  4001c3:	51                   	push   %rcx
  4001c4:	e8 57 00 00 00       	callq  400220 <center_and_print>

00000000004001c9 <last_line>:
  4001c9:	89 ef                	mov    %ebp,%edi
  4001cb:	be c9 54 40 00       	mov    $0x4054c9,%esi
  4001d0:	ff d2                	callq  *%rdx
  4001d2:	59                   	pop    %rcx
  4001d3:	e8 48 00 00 00       	callq  400220 <center_and_print>
  4001d8:	59                   	pop    %rcx
  4001d9:	e8 75 00 00 00       	callq  400253 <write_stdout>

00000000004001de <exit>:
  4001de:	6a 3c                	pushq  $0x3c
  4001e0:	58                   	pop    %rax
  4001e1:	31 ff                	xor    %edi,%edi
  4001e3:	0f 05                	syscall 

00000000004001e5 <find_string>:
  4001e5:	be 07 44 40 00       	mov    $0x404407,%esi

00000000004001ea <find_loop>:
  4001ea:	ff c6                	inc    %esi
  4001ec:	80 3e 00             	cmpb   $0x0,(%rsi)
  4001ef:	74 25                	je     400216 <done>
  4001f1:	3b 1e                	cmp    (%rsi),%ebx
  4001f3:	75 f5                	jne    4001ea <find_loop>

00000000004001f5 <find_colon>:
  4001f5:	ac                   	lods   %ds:(%rsi),%al
  4001f6:	3c 00                	cmp    $0x0,%al
  4001f8:	74 1c                	je     400216 <done>
  4001fa:	3c 3a                	cmp    $0x3a,%al
  4001fc:	75 f7                	jne    4001f5 <find_colon>

00000000004001fe <skip_spaces>:
  4001fe:	ac                   	lods   %ds:(%rsi),%al
  4001ff:	3c 20                	cmp    $0x20,%al
  400201:	74 fb                	je     4001fe <skip_spaces>

0000000000400203 <store_loop>:
  400203:	3c 00                	cmp    $0x0,%al
  400205:	74 0f                	je     400216 <done>
  400207:	38 e0                	cmp    %ah,%al
  400209:	74 08                	je     400213 <almost_done>
  40020b:	3c 0a                	cmp    $0xa,%al
  40020d:	74 04                	je     400213 <almost_done>
  40020f:	aa                   	stos   %al,%es:(%rdi)
  400210:	ac                   	lods   %ds:(%rsi),%al
  400211:	eb f0                	jmp    400203 <store_loop>

0000000000400213 <almost_done>:
  400213:	c6 07 00             	movb   $0x0,(%rdi)

0000000000400216 <done>:
  400216:	c3                   	retq   

0000000000400217 <strcat>:
  400217:	ac                   	lods   %ds:(%rsi),%al
  400218:	aa                   	stos   %al,%es:(%rdi)
  400219:	3c 00                	cmp    $0x0,%al
  40021b:	75 fa                	jne    400217 <strcat>
  40021d:	ff cf                	dec    %edi
  40021f:	c3                   	retq   

0000000000400220 <center_and_print>:
  400220:	52                   	push   %rdx
  400221:	51                   	push   %rcx
  400222:	ff c7                	inc    %edi
  400224:	57                   	push   %rdi
  400225:	66 b8 1b 5b          	mov    $0x5b1b,%ax
  400229:	66 ab                	stos   %ax,%es:(%rdi)
  40022b:	99                   	cltd   

000000000040022c <str_loop2>:
  40022c:	ff c2                	inc    %edx
  40022e:	80 3c 11 00          	cmpb   $0x0,(%rcx,%rdx,1)
  400232:	75 f8                	jne    40022c <str_loop2>
  400234:	6a 51                	pushq  $0x51
  400236:	58                   	pop    %rax
  400237:	39 c2                	cmp    %eax,%edx
  400239:	7c 03                	jl     40023e <not_too_big>
  40023b:	6a 50                	pushq  $0x50
  40023d:	5a                   	pop    %rdx

000000000040023e <not_too_big>:
  40023e:	29 d0                	sub    %edx,%eax
  400240:	d1 e8                	shr    %eax
  400242:	e8 21 00 00 00       	callq  400268 <num_to_ascii>
  400247:	b0 43                	mov    $0x43,%al
  400249:	66 ab                	stos   %ax,%es:(%rdi)
  40024b:	59                   	pop    %rcx
  40024c:	e8 02 00 00 00       	callq  400253 <write_stdout>

0000000000400251 <done_center>:
  400251:	59                   	pop    %rcx
  400252:	5a                   	pop    %rdx

0000000000400253 <write_stdout>:
  400253:	52                   	push   %rdx
  400254:	6a 01                	pushq  $0x1
  400256:	58                   	pop    %rax
  400257:	99                   	cltd   
  400258:	8d 7a 01             	lea    0x1(%rdx),%edi
  40025b:	89 ce                	mov    %ecx,%esi

000000000040025d <str_loop1>:
  40025d:	ff c2                	inc    %edx
  40025f:	38 24 11             	cmp    %ah,(%rcx,%rdx,1)
  400262:	75 f9                	jne    40025d <str_loop1>
  400264:	0f 05                	syscall 
  400266:	5a                   	pop    %rdx
  400267:	c3                   	retq   

0000000000400268 <num_to_ascii>:
  400268:	6a 0a                	pushq  $0xa
  40026a:	5b                   	pop    %rbx
  40026b:	31 c9                	xor    %ecx,%ecx

000000000040026d <div_by_10>:
  40026d:	99                   	cltd   
  40026e:	f7 f3                	div    %ebx
  400270:	52                   	push   %rdx
  400271:	ff c1                	inc    %ecx
  400273:	09 c0                	or     %eax,%eax
  400275:	75 f6                	jne    40026d <div_by_10>

0000000000400277 <write_out>:
  400277:	58                   	pop    %rax
  400278:	04 30                	add    $0x30,%al
  40027a:	aa                   	stos   %al,%es:(%rdi)
  40027b:	e2 fa                	loop   400277 <write_out>
  40027d:	c3                   	retq   
