
./ll:     file format elf32-sh-linux

Disassembly of section .text:

00400054 <_start>:
  400054:	3b d8       	mov.l	400144 <out_addr>,r8	! 0x400830 <out_buffer>
  400056:	83 6a       	mov	r8,r10
  400058:	3f d0       	mov.l	400158 <R>,r0	! 0x3c0
  40005a:	3b d3       	mov.l	400148 <logo_addr>,r3	! 0x4002c7 <logo>
  40005c:	3b d7       	mov.l	40014c <logo_end_addr>,r7	! 0x4003e2 <logo_end>
  40005e:	3c d9       	mov.l	400150 <text_addr>,r9	! 0x4003f0 <text_buf>

00400060 <decompression_loop>:
  400060:	08 e5       	mov	#8,r5
  400062:	34 61       	mov.b	@r3+,r1

00400064 <test_flags>:
  400064:	73 33       	cmp/ge	r7,r3
  400066:	21 89       	bt	4000ac <done_logo>
  400068:	01 41       	shlr	r1
  40006a:	1c 89       	bt	4000a6 <discrete_char>

0040006c <offset_length>:
  40006c:	34 6c       	mov.b	@r3+,r12
  40006e:	cc 6c       	extu.b	r12,r12
  400070:	34 64       	mov.b	@r3+,r4
  400072:	4c 64       	extu.b	r4,r4
  400074:	18 44       	shll8	r4
  400076:	4b 2c       	or	r4,r12
  400078:	c3 66       	mov	r12,r6
  40007a:	19 46       	shlr8	r6
  40007c:	09 46       	shlr2	r6
  40007e:	03 76       	add	#3,r6

00400080 <output_loop>:
  400080:	34 dd       	mov.l	400154 <pos_mask>,r13	! 0x3ff
  400082:	d9 2c       	and	r13,r12
  400084:	93 6d       	mov	r9,r13
  400086:	cc 3d       	add	r12,r13
  400088:	d0 64       	mov.b	@r13,r4
  40008a:	01 7c       	add	#1,r12

0040008c <store_byte>:
  40008c:	40 2a       	mov.b	r4,@r10
  40008e:	01 7a       	add	#1,r10
  400090:	44 09       	mov.b	r4,@(r0,r9)
  400092:	01 70       	add	#1,r0
  400094:	62 92       	mov.w	40015c <n_val>,r2	! 0x400 <N>
  400096:	ff 72       	add	#-1,r2
  400098:	29 20       	and	r2,r0
  40009a:	10 46       	dt	r6
  40009c:	f0 8b       	bf	400080 <output_loop>
  40009e:	10 45       	dt	r5
  4000a0:	e0 8b       	bf	400064 <test_flags>
  4000a2:	dd af       	bra	400060 <decompression_loop>
  4000a4:	09 00       	nop	

004000a6 <discrete_char>:
  4000a6:	34 64       	mov.b	@r3+,r4
  4000a8:	f0 af       	bra	40008c <store_byte>
  4000aa:	01 e6       	mov	#1,r6

004000ac <done_logo>:
  4000ac:	93 b0       	bsr	4001d6 <write_stdout>
  4000ae:	83 65       	mov	r8,r5

004000b0 <first_line>:
  4000b0:	83 6a       	mov	r8,r10
  4000b2:	7a e3       	mov	#122,r3
  4000b4:	63 d4       	mov.l	400244 <uname_addr>,r4	! 0x404830 <uname_info>
  4000b6:	11 c3       	trapa	#17
  4000b8:	75 b0       	bsr	4001a6 <strcat_r4>
  4000ba:	43 6b       	mov	r4,r11
  4000bc:	6c b0       	bsr	400198 <strcat_r9>
  4000be:	60 d9       	mov.l	400240 <data_addr>,r9	! 0x400268 <__data_start>
  4000c0:	41 7b       	add	#65,r11
  4000c2:	b3 63       	mov	r11,r3
  4000c4:	41 73       	add	#65,r3
  4000c6:	6e b0       	bsr	4001a6 <strcat_r4>
  4000c8:	33 64       	mov	r3,r4
  4000ca:	65 b0       	bsr	400198 <strcat_r9>
  4000cc:	09 00       	nop	
  4000ce:	41 73       	add	#65,r3
  4000d0:	69 b0       	bsr	4001a6 <strcat_r4>
  4000d2:	33 64       	mov	r3,r4
  4000d4:	60 b0       	bsr	400198 <strcat_r9>
  4000d6:	09 00       	nop	
  4000d8:	6c b0       	bsr	4001b4 <center_and_print>
  4000da:	09 00       	nop	

004000dc <middle_line>:
  4000dc:	83 6a       	mov	r8,r10
  4000de:	05 e3       	mov	#5,r3
  4000e0:	56 d4       	mov.l	40023c <cpu_addr>,r4	! 0x4002b9 <cpuinfo>
  4000e2:	00 e5       	mov	#0,r5
  4000e4:	12 c3       	trapa	#18
  4000e6:	03 61       	mov	r0,r1
  4000e8:	03 e3       	mov	#3,r3
  4000ea:	13 64       	mov	r1,r4
  4000ec:	56 d5       	mov.l	400248 <disk_addr>,r5	! 0x404a10 <disk_buffer>
  4000ee:	10 e6       	mov	#16,r6
  4000f0:	18 46       	shll8	r6
  4000f2:	13 c3       	trapa	#19
  4000f4:	06 e3       	mov	#6,r3
  4000f6:	13 64       	mov	r1,r4
  4000f8:	11 c3       	trapa	#17

004000fa <number_of_cpus>:
  4000fa:	4d b0       	bsr	400198 <strcat_r9>
  4000fc:	09 00       	nop	

004000fe <print_mhz>:
  4000fe:	2e b0       	bsr	40015e <find_string>
  400100:	57 d4       	mov.l	400260 <mhz_search>,r4	! 0x7520636c
  400102:	49 b0       	bsr	400198 <strcat_r9>
  400104:	09 00       	nop	

00400106 <chip_name>:
  400106:	2a b0       	bsr	40015e <find_string>
  400108:	54 d4       	mov.l	40025c <family_search>,r4	! 0x6d696c79
  40010a:	45 b0       	bsr	400198 <strcat_r9>
  40010c:	09 00       	nop	
  40010e:	74 e3       	mov	#116,r3
  400110:	4e d4       	mov.l	40024c <sys_addr>,r4	! 0x4049c0 <sysinfo_buff>
  400112:	11 c3       	trapa	#17
  400114:	44 54       	mov.l	@(16,r4),r4
  400116:	29 44       	shlr16	r4
  400118:	09 44       	shlr2	r4
  40011a:	09 44       	shlr2	r4
  40011c:	67 b0       	bsr	4001ee <num_to_ascii>
  40011e:	01 e3       	mov	#1,r3
  400120:	3a b0       	bsr	400198 <strcat_r9>
  400122:	09 00       	nop	
  400124:	1b b0       	bsr	40015e <find_string>
  400126:	4f d4       	mov.l	400264 <bogo_search>,r4	! 0x6d697073
  400128:	36 b0       	bsr	400198 <strcat_r9>
  40012a:	09 00       	nop	
  40012c:	42 b0       	bsr	4001b4 <center_and_print>
  40012e:	09 00       	nop	

00400130 <last_line>:
  400130:	83 6a       	mov	r8,r10
  400132:	38 b0       	bsr	4001a6 <strcat_r4>
  400134:	b3 64       	mov	r11,r4
  400136:	3d b0       	bsr	4001b4 <center_and_print>
  400138:	09 00       	nop	
  40013a:	4c b0       	bsr	4001d6 <write_stdout>
  40013c:	93 65       	mov	r9,r5

0040013e <exit>:
  40013e:	01 e3       	mov	#1,r3
  400140:	00 e4       	mov	#0,r4
  400142:	11 c3       	trapa	#17

00400144 <out_addr>:
  400144:	30 08       	.word 0x0830
  400146:	40 00       	.word 0x0040

00400148 <logo_addr>:
  400148:	c7 02       	mul.l	r12,r2
  40014a:	40 00       	.word 0x0040

0040014c <logo_end_addr>:
  40014c:	e2 03       	stc	r6_bank,r3
  40014e:	40 00       	.word 0x0040

00400150 <text_addr>:
  400150:	f0 03       	.word 0x03f0
  400152:	40 00       	.word 0x0040

00400154 <pos_mask>:
  400154:	ff 03       	mac.l	@r15+,@r3+
	...

00400158 <R>:
  400158:	c0 03       	.word 0x03c0
	...

0040015c <n_val>:
  40015c:	00 04       	.word 0x0400

0040015e <find_string>:
  40015e:	3a d5       	mov.l	400248 <disk_addr>,r5	! 0x404a10 <disk_buffer>

00400160 <find_loop>:
  400160:	1a 21       	xor	r1,r1
  400162:	00 e0       	mov	#0,r0

00400164 <looper>:
  400164:	5c 0e       	mov.b	@(r0,r5),r14
  400166:	18 41       	shll8	r1
  400168:	eb 21       	or	r14,r1
  40016a:	01 70       	add	#1,r0
  40016c:	04 88       	cmp/eq	#4,r0
  40016e:	f9 8b       	bf	400164 <looper>
  400170:	0a 20       	xor	r0,r0
  400172:	10 30       	cmp/eq	r1,r0
  400174:	0e 89       	bt	400194 <done>
  400176:	40 31       	cmp/eq	r4,r1
  400178:	f2 8f       	bf.s	400160 <find_loop>
  40017a:	01 75       	add	#1,r5

0040017c <find_colon>:
  40017c:	54 60       	mov.b	@r5+,r0
  40017e:	3a 88       	cmp/eq	#58,r0
  400180:	fc 8f       	bf.s	40017c <find_colon>
  400182:	09 00       	nop	
  400184:	01 75       	add	#1,r5

00400186 <store_loop>:
  400186:	54 60       	mov.b	@r5+,r0
  400188:	00 2a       	mov.b	r0,@r10
  40018a:	01 7a       	add	#1,r10
  40018c:	0a 88       	cmp/eq	#10,r0
  40018e:	fa 8f       	bf.s	400186 <store_loop>
  400190:	09 00       	nop	
  400192:	0a 20       	xor	r0,r0

00400194 <done>:
  400194:	0b 00       	rts	
  400196:	04 2a       	mov.b	r0,@-r10

00400198 <strcat_r9>:
  400198:	94 60       	mov.b	@r9+,r0
  40019a:	00 2a       	mov.b	r0,@r10
  40019c:	01 7a       	add	#1,r10
  40019e:	00 88       	cmp/eq	#0,r0
  4001a0:	fa 8b       	bf	400198 <strcat_r9>
  4001a2:	0b 00       	rts	
  4001a4:	ff 7a       	add	#-1,r10

004001a6 <strcat_r4>:
  4001a6:	44 60       	mov.b	@r4+,r0
  4001a8:	00 2a       	mov.b	r0,@r10
  4001aa:	01 7a       	add	#1,r10
  4001ac:	00 88       	cmp/eq	#0,r0
  4001ae:	fa 8b       	bf	4001a6 <strcat_r4>
  4001b0:	0b 00       	rts	
  4001b2:	ff 7a       	add	#-1,r10

004001b4 <center_and_print>:
  4001b4:	22 4f       	sts.l	pr,@-r15
  4001b6:	0e b0       	bsr	4001d6 <write_stdout>
  4001b8:	25 d5       	mov.l	400250 <escape_addr>,r5	! 0x4002b4 <escape>

004001ba <str_loop2>:
  4001ba:	a3 60       	mov	r10,r0
  4001bc:	88 30       	sub	r8,r0
  4001be:	51 e4       	mov	#81,r4
  4001c0:	0b 34       	subv	r0,r4
  4001c2:	06 89       	bt	4001d2 <done_center>
  4001c4:	01 44       	shlr	r4
  4001c6:	0a 20       	xor	r0,r0
  4001c8:	0e 34       	addc	r0,r4
  4001ca:	10 b0       	bsr	4001ee <num_to_ascii>
  4001cc:	00 e3       	mov	#0,r3
  4001ce:	02 b0       	bsr	4001d6 <write_stdout>
  4001d0:	21 d5       	mov.l	400258 <c_addr>,r5	! 0x4002b7 <C>

004001d2 <done_center>:
  4001d2:	26 4f       	lds.l	@r15+,pr
  4001d4:	83 65       	mov	r8,r5

004001d6 <write_stdout>:
  4001d6:	ff e0       	mov	#-1,r0
  4001d8:	00 e2       	mov	#0,r2

004001da <strlen>:
  4001da:	01 70       	add	#1,r0
  4001dc:	5c 01       	mov.b	@(r0,r5),r1
  4001de:	20 31       	cmp/eq	r2,r1
  4001e0:	fb 8f       	bf.s	4001da <strlen>
  4001e2:	03 66       	mov	r0,r6
  4001e4:	04 e3       	mov	#4,r3
  4001e6:	01 e4       	mov	#1,r4
  4001e8:	13 c3       	trapa	#19
  4001ea:	0b 00       	rts	
  4001ec:	09 00       	nop	

004001ee <num_to_ascii>:
  4001ee:	19 d5       	mov.l	400254 <ascii_addr>,r5	! 0x404a0a

004001f0 <div_by_10>:
  4001f0:	0a e6       	mov	#10,r6
  4001f2:	28 46       	shll16	r6
  4001f4:	19 00       	div0u	
  4001f6:	43 62       	mov	r4,r2

004001f8 <divloop>:
  4001f8:	64 32       	div1	r6,r2
  4001fa:	64 32       	div1	r6,r2
  4001fc:	64 32       	div1	r6,r2
  4001fe:	64 32       	div1	r6,r2
  400200:	64 32       	div1	r6,r2
  400202:	64 32       	div1	r6,r2
  400204:	64 32       	div1	r6,r2
  400206:	64 32       	div1	r6,r2
  400208:	64 32       	div1	r6,r2
  40020a:	64 32       	div1	r6,r2
  40020c:	64 32       	div1	r6,r2
  40020e:	64 32       	div1	r6,r2
  400210:	64 32       	div1	r6,r2
  400212:	64 32       	div1	r6,r2
  400214:	64 32       	div1	r6,r2
  400216:	64 32       	div1	r6,r2
  400218:	24 42       	rotcl	r2
  40021a:	2d 62       	extu.w	r2,r2
  40021c:	0a e6       	mov	#10,r6
  40021e:	67 02       	mul.l	r6,r2
  400220:	1a 00       	sts	macl,r0
  400222:	43 66       	mov	r4,r6
  400224:	08 36       	sub	r0,r6
  400226:	30 76       	add	#48,r6
  400228:	64 25       	mov.b	r6,@-r5
  40022a:	23 64       	mov	r2,r4
  40022c:	0a 20       	xor	r0,r0
  40022e:	00 34       	cmp/eq	r0,r4
  400230:	de 8b       	bf	4001f0 <div_by_10>

00400232 <write_out>:
  400232:	30 30       	cmp/eq	r3,r0
  400234:	cf 89       	bt	4001d6 <write_stdout>
  400236:	b6 af       	bra	4001a6 <strcat_r4>
  400238:	53 64       	mov	r5,r4
  40023a:	09 00       	nop	

0040023c <cpu_addr>:
  40023c:	b9 02       	.word 0x02b9
  40023e:	40 00       	.word 0x0040

00400240 <data_addr>:
  400240:	68 02       	.word 0x0268
  400242:	40 00       	.word 0x0040

00400244 <uname_addr>:
  400244:	30 48       	.word 0x4830
  400246:	40 00       	.word 0x0040

00400248 <disk_addr>:
  400248:	10 4a       	dt	r10
  40024a:	40 00       	.word 0x0040

0040024c <sys_addr>:
  40024c:	c0 49       	.word 0x49c0
  40024e:	40 00       	.word 0x0040

00400250 <escape_addr>:
  400250:	b4 02       	mov.b	r11,@(r0,r2)
  400252:	40 00       	.word 0x0040

00400254 <ascii_addr>:
  400254:	0a 4a       	lds	r10,mach
  400256:	40 00       	.word 0x0040

00400258 <c_addr>:
  400258:	b7 02       	mul.l	r11,r2
  40025a:	40 00       	.word 0x0040

0040025c <family_search>:
  40025c:	79 6c       	swap.w	r7,r12
  40025e:	69 6d       	swap.w	r6,r13

00400260 <mhz_search>:
  400260:	6c 63       	extu.b	r6,r3
  400262:	20 75       	add	#32,r5

00400264 <bogo_search>:
  400264:	73 70       	add	#115,r0
  400266:	69 6d       	swap.w	r6,r13