
./ll:     file format elf32-avr32

Disassembly of section .text:

00001074 <_start>:
    1074:	e0 61 29 c0 	mov r1,10688
    1078:	e0 62 03 c0 	mov r2,960
    107c:	e0 63 12 77 	mov r3,4727
    1080:	e0 64 13 92 	mov r4,5010
    1084:	e0 6c 15 80 	mov r12,5504

00001088 <decompression_loop>:
    1088:	30 08       	mov r8,0
    108a:	07 38       	ld.ub r8,r3++
    108c:	e8 18 ff 00 	orl r8,0xff00

00001090 <test_flags>:
    1090:	08 33       	cp.w r3,r4
    1092:	c2 34       	brge 10d8 <done_logo>
    1094:	a1 98       	lsr r8,0x1
    1096:	c1 d3       	brcs 10d0 <discrete_char>

00001098 <offset_length>:
    1098:	07 30       	ld.ub r0,r3++
    109a:	07 39       	ld.ub r9,r3++
    109c:	a9 69       	lsl r9,0x8
    109e:	00 49       	or r9,r0
    10a0:	12 9b       	mov r11,r9
    10a2:	ab 89       	lsr r9,0xa
    10a4:	2f d9       	sub r9,-3
    10a6:	12 9a       	mov r10,r9

000010a8 <output_loop>:
    10a8:	e0 60 03 ff 	mov r0,1023
    10ac:	00 6b       	and r11,r0
    10ae:	f8 0b 07 09 	ld.ub r9,r12[r11]
    10b2:	2f fb       	sub r11,-1

000010b4 <store_byte>:
    10b4:	02 c9       	st.b r1++,r9
    10b6:	f8 02 0b 09 	st.b r12[r2],r9
    10ba:	2f f2       	sub r2,-1
    10bc:	e0 60 03 ff 	mov r0,1023
    10c0:	00 62       	and r2,r0
    10c2:	20 1a       	sub r10,1
    10c4:	cf 21       	brne 10a8 <output_loop>
    10c6:	10 90       	mov r0,r8
    10c8:	e0 10 ff 00 	andl r0,0xff00
    10cc:	ce 21       	brne 1090 <test_flags>
    10ce:	cd d0       	breq 1088 <decompression_loop>

000010d0 <discrete_char>:
    10d0:	07 39       	ld.ub r9,r3++
    10d2:	30 1a       	mov r10,1
    10d4:	fe 9f ff f0 	bral 10b4 <store_byte>

000010d8 <done_logo>:
    10d8:	e0 6b 29 c0 	mov r11,10688
    10dc:	16 93       	mov r3,r11
    10de:	c7 ec       	rcall 11da <done_center>

000010e0 <first_line>:
    10e0:	e0 6c 13 a0 	mov r12,5024
    10e4:	18 94       	mov r4,r12
    10e6:	36 f8       	mov r8,111
    10e8:	d7 33       	scall
    10ea:	06 92       	mov r2,r3
    10ec:	c5 ec       	rcall 11a8 <strcat2>
    10ee:	e0 61 12 0c 	mov r1,4620
    10f2:	c5 5c       	rcall 119c <strcat>
    10f4:	e0 64 14 22 	mov r4,5154
    10f8:	c5 8c       	rcall 11a8 <strcat2>
    10fa:	c5 1c       	rcall 119c <strcat>
    10fc:	e0 64 14 63 	mov r4,5219
    1100:	c5 4c       	rcall 11a8 <strcat2>
    1102:	c4 dc       	rcall 119c <strcat>
    1104:	c5 8c       	rcall 11b4 <center_and_print>

00001106 <middle_line>:
    1106:	06 92       	mov r2,r3
    1108:	e0 6c 12 5d 	mov r12,4701
    110c:	30 0b       	mov r11,0
    110e:	30 58       	mov r8,5
    1110:	d7 33       	scall
    1112:	18 90       	mov r0,r12
    1114:	e0 6b 19 c0 	mov r11,6592
    1118:	e0 6a 10 00 	mov r10,4096
    111c:	30 38       	mov r8,3
    111e:	d7 33       	scall
    1120:	00 9c       	mov r12,r0
    1122:	30 68       	mov r8,6
    1124:	d7 33       	scall

00001126 <number_of_cpus>:
    1126:	c3 bc       	rcall 119c <strcat>

00001128 <print_mhz>:
    1128:	fe f4 01 43 	ld.w r4,pc[323]
    112c:	c2 2c       	rcall 1170 <find_string>
    112e:	c3 7c       	rcall 119c <strcat>

00001130 <chip_name>:
    1130:	fe f4 01 3f 	ld.w r4,pc[319]
    1134:	c1 ec       	rcall 1170 <find_string>
    1136:	c3 3c       	rcall 119c <strcat>
    1138:	e0 6c 15 30 	mov r12,5424
    113c:	36 b8       	mov r8,107
    113e:	d7 33       	scall
    1140:	e0 60 15 30 	mov r0,5424
    1144:	60 46       	ld.w r6,r0[0x10]
    1146:	b5 86       	lsr r6,0x14
    1148:	5c 06       	acr r6
    114a:	30 1c       	mov r12,1
    114c:	c5 1c       	rcall 11ee <num_to_ascii>
    114e:	c2 7c       	rcall 119c <strcat>
    1150:	fe f4 01 23 	ld.w r4,pc[291]
    1154:	c0 ec       	rcall 1170 <find_string>
    1156:	c2 3c       	rcall 119c <strcat>
    1158:	c2 ec       	rcall 11b4 <center_and_print>

0000115a <last_line>:
    115a:	06 92       	mov r2,r3
    115c:	e0 64 13 e1 	mov r4,5089
    1160:	c2 4c       	rcall 11a8 <strcat2>
    1162:	c2 9c       	rcall 11b4 <center_and_print>
    1164:	e0 6b 12 51 	mov r11,4689
    1168:	c3 9c       	rcall 11da <done_center>

0000116a <exit>:
    116a:	30 0c       	mov r12,0
    116c:	30 18       	mov r8,1
    116e:	d7 33       	scall

00001170 <find_string>:
    1170:	e0 66 19 bf 	mov r6,6591

00001174 <find_loop>:
    1174:	2f f6       	sub r6,-1
    1176:	6c 00       	ld.w r0,r6[0x0]
    1178:	00 40       	or r0,r0
    117a:	c1 00       	breq 119a <done>
    117c:	08 30       	cp.w r0,r4
    117e:	cf b1       	brne 1174 <find_loop>
    1180:	2f c6       	sub r6,-4

00001182 <skip_tabs>:
    1182:	0d 30       	ld.ub r0,r6++
    1184:	58 90       	cp.w r0,9
    1186:	cf e0       	breq 1182 <skip_tabs>
    1188:	2f f6       	sub r6,-1

0000118a <store_loop>:
    118a:	0d 30       	ld.ub r0,r6++
    118c:	e0 40 00 21 	cp.w r0,33
    1190:	c0 35       	brlt 1196 <almost_done>
    1192:	04 c0       	st.b r2++,r0
    1194:	cf b4       	brge 118a <store_loop>

00001196 <almost_done>:
    1196:	30 00       	mov r0,0
    1198:	0c f0       	st.b --r6,r0

0000119a <done>:
    119a:	5e fc       	retal r12

0000119c <strcat>:
    119c:	03 30       	ld.ub r0,r1++
    119e:	04 c0       	st.b r2++,r0
    11a0:	00 40       	or r0,r0
    11a2:	cf d1       	brne 119c <strcat>
    11a4:	20 12       	sub r2,1
    11a6:	5e fc       	retal r12

000011a8 <strcat2>:
    11a8:	09 30       	ld.ub r0,r4++
    11aa:	04 c0       	st.b r2++,r0
    11ac:	00 40       	or r0,r0
    11ae:	cf d1       	brne 11a8 <strcat2>
    11b0:	20 12       	sub r2,1
    11b2:	5e fc       	retal r12

000011b4 <center_and_print>:
    11b4:	d4 01       	pushm lr
    11b6:	e0 6b 12 58 	mov r11,4696
    11ba:	c1 0c       	rcall 11da <done_center>
    11bc:	06 9b       	mov r11,r3
    11be:	04 96       	mov r6,r2
    11c0:	16 16       	sub r6,r11
    11c2:	ec 06 11 51 	rsub r6,r6,81
    11c6:	c0 a6       	brmi 11da <done_center>
    11c8:	a1 96       	lsr r6,0x1
    11ca:	5c 06       	acr r6
    11cc:	30 0c       	mov r12,0
    11ce:	c1 0c       	rcall 11ee <num_to_ascii>
    11d0:	e0 6b 12 5b 	mov r11,4699
    11d4:	c0 3c       	rcall 11da <done_center>
    11d6:	06 9b       	mov r11,r3
    11d8:	d4 02       	popm lr

000011da <done_center>:
    11da:	30 0a       	mov r10,0

000011dc <str_loop1>:
    11dc:	2f fa       	sub r10,-1
    11de:	f6 0a 07 00 	ld.ub r0,r11[r10]
    11e2:	58 00       	cp.w r0,0
    11e4:	cf c1       	brne 11dc <str_loop1>

000011e6 <write_stdout_we_know_size>:
    11e6:	30 1c       	mov r12,1
    11e8:	30 48       	mov r8,4
    11ea:	d7 33       	scall
    11ec:	5e fc       	retal r12

000011ee <num_to_ascii>:
    11ee:	d4 03       	csrf 0x0
    11f0:	e0 6b 15 7a 	mov r11,5498
    11f4:	30 a0       	mov r0,10

000011f6 <div_by_10>:
    11f6:	ec 00 0d 06 	divu r6,r6,r0
    11fa:	2d 07       	sub r7,-48
    11fc:	16 f7       	st.b --r11,r7
    11fe:	58 06       	cp.w r6,0
    1200:	cf b1       	brne 11f6 <div_by_10>

00001202 <write_out>:
    1202:	58 0c       	cp.w r12,0
    1204:	c0 30       	breq 120a <ascii_stdout>
    1206:	16 94       	mov r4,r11
    1208:	cd 02       	brcc 11a8 <strcat2>

0000120a <ascii_stdout>:
    120a:	ce 82       	brcc 11da <done_center>