
./ll.arm.eabi:     file format elf32-littlearm


Disassembly of section .text:

00008054 <_start>:
    8054:	e59f02c0 	ldr	r0, [pc, #704]	; 831c <literals>
    8058:	e8901b0e 	ldm	r0, {r1, r2, r3, r8, r9, fp, ip}

0000805c <decompression_loop>:
    805c:	e4d34001 	ldrb	r4, [r3], #1
    8060:	e3a050ff 	mov	r5, #255	; 0xff
    8064:	e1845405 	orr	r5, r4, r5, lsl #8

00008068 <test_flags>:
    8068:	e1530008 	cmp	r3, r8
    806c:	aa000018 	bge	80d4 <done_logo>
    8070:	e1b050a5 	lsrs	r5, r5, #1

00008074 <discrete_char>:
    8074:	24d34001 	ldrbcs	r4, [r3], #1
    8078:	23a06001 	movcs	r6, #1
    807c:	2a000009 	bcs	80a8 <store_byte>

00008080 <offset_length>:
    8080:	e4d30001 	ldrb	r0, [r3], #1
    8084:	e4d34001 	ldrb	r4, [r3], #1
    8088:	e1804404 	orr	r4, r0, r4, lsl #8
    808c:	e1a07004 	mov	r7, r4
    8090:	e3a00003 	mov	r0, #3
    8094:	e0806524 	add	r6, r0, r4, lsr #10

00008098 <output_loop>:
    8098:	e59f0280 	ldr	r0, [pc, #640]	; 8320 <literals+0x4>
    809c:	e0077000 	and	r7, r7, r0
    80a0:	e7d94007 	ldrb	r4, [r9, r7]
    80a4:	e2877001 	add	r7, r7, #1

000080a8 <store_byte>:
    80a8:	e4c14001 	strb	r4, [r1], #1
    80ac:	e7c94002 	strb	r4, [r9, r2]
    80b0:	e2822001 	add	r2, r2, #1
    80b4:	e3a00b01 	mov	r0, #1024	; 0x400
    80b8:	e2400001 	sub	r0, r0, #1
    80bc:	e0022000 	and	r2, r2, r0
    80c0:	e2566001 	subs	r6, r6, #1
    80c4:	1afffff3 	bne	8098 <output_loop>
    80c8:	e35500ff 	cmp	r5, #255	; 0xff
    80cc:	caffffe5 	bgt	8068 <test_flags>
    80d0:	eaffffe1 	b	805c <decompression_loop>

000080d4 <done_logo>:
    80d4:	e59f1224 	ldr	r1, [pc, #548]	; 8300 <addresses>
    80d8:	eb00006d 	bl	8294 <write_stdout>

000080dc <first_line>:
    80dc:	e28c0000 	add	r0, ip, #0
    80e0:	e3a0707a 	mov	r7, #122	; 0x7a
    80e4:	ef000000 	svc	0x00000000
    80e8:	e28c1000 	add	r1, ip, #0
    80ec:	e59fa20c 	ldr	sl, [pc, #524]	; 8300 <addresses>
    80f0:	eb000052 	bl	8240 <strcat>
    80f4:	e28b1000 	add	r1, fp, #0
    80f8:	eb000050 	bl	8240 <strcat>
    80fc:	e28c1082 	add	r1, ip, #130	; 0x82
    8100:	eb00004e 	bl	8240 <strcat>
    8104:	e28b100a 	add	r1, fp, #10
    8108:	eb00004c 	bl	8240 <strcat>
    810c:	e28c10c3 	add	r1, ip, #195	; 0xc3
    8110:	eb00004a 	bl	8240 <strcat>
    8114:	e3a0300a 	mov	r3, #10
    8118:	e4ca3001 	strb	r3, [sl], #1
    811c:	e4ca0001 	strb	r0, [sl], #1
    8120:	eb00004c 	bl	8258 <center_and_print>

00008124 <middle_line>:
    8124:	e59fa1d4 	ldr	sl, [pc, #468]	; 8300 <addresses>
    8128:	e28b0048 	add	r0, fp, #72	; 0x48
    812c:	e3a01000 	mov	r1, #0
    8130:	e3a07005 	mov	r7, #5
    8134:	ef000000 	svc	0x00000000
    8138:	e1a05000 	mov	r5, r0
    813c:	e59f11e0 	ldr	r1, [pc, #480]	; 8324 <literals+0x8>
    8140:	e3a02a01 	mov	r2, #4096	; 0x1000
    8144:	e3a07003 	mov	r7, #3
    8148:	ef000000 	svc	0x00000000
    814c:	e1a00005 	mov	r0, r5
    8150:	e3a07006 	mov	r7, #6
    8154:	ef000000 	svc	0x00000000

00008158 <number_of_cpus>:
    8158:	e28b1056 	add	r1, fp, #86	; 0x56
    815c:	eb000037 	bl	8240 <strcat>

00008160 <chip_name>:
    8160:	e3a00073 	mov	r0, #115	; 0x73
    8164:	e3a0106f 	mov	r1, #111	; 0x6f
    8168:	e3a02072 	mov	r2, #114	; 0x72
    816c:	e3a03020 	mov	r3, #32
    8170:	eb00001c 	bl	81e8 <find_string>
    8174:	e28b1016 	add	r1, fp, #22
    8178:	eb000030 	bl	8240 <strcat>
    817c:	e28c0f62 	add	r0, ip, #392	; 0x188
    8180:	e3a07074 	mov	r7, #116	; 0x74
    8184:	ef000000 	svc	0x00000000
    8188:	e59c3198 	ldr	r3, [ip, #408]	; 0x198
    818c:	e1b03a23 	lsrs	r3, r3, #20
    8190:	e2a33000 	adc	r3, r3, #0
    8194:	e3a00001 	mov	r0, #1
    8198:	eb000046 	bl	82b8 <num_to_ascii>
    819c:	e28b1023 	add	r1, fp, #35	; 0x23
    81a0:	eb000026 	bl	8240 <strcat>
    81a4:	e3a00049 	mov	r0, #73	; 0x49
    81a8:	e3a01050 	mov	r1, #80	; 0x50
    81ac:	e3a02053 	mov	r2, #83	; 0x53
    81b0:	e3a0300a 	mov	r3, #10
    81b4:	eb00000b 	bl	81e8 <find_string>
    81b8:	e28b102b 	add	r1, fp, #43	; 0x2b
    81bc:	eb00001f 	bl	8240 <strcat>
    81c0:	eb000024 	bl	8258 <center_and_print>

000081c4 <last_line>:
    81c4:	e59fa134 	ldr	sl, [pc, #308]	; 8300 <addresses>
    81c8:	e28c1041 	add	r1, ip, #65	; 0x41
    81cc:	eb00001b 	bl	8240 <strcat>
    81d0:	eb000020 	bl	8258 <center_and_print>
    81d4:	e28b103c 	add	r1, fp, #60	; 0x3c
    81d8:	eb00002d 	bl	8294 <write_stdout>

000081dc <exit>:
    81dc:	e3a00000 	mov	r0, #0
    81e0:	e3a07001 	mov	r7, #1
    81e4:	ef000000 	svc	0x00000000

000081e8 <find_string>:
    81e8:	e59f7134 	ldr	r7, [pc, #308]	; 8324 <literals+0x8>

000081ec <find_loop>:
    81ec:	e4d75001 	ldrb	r5, [r7], #1
    81f0:	e1550000 	cmp	r5, r0
    81f4:	e5d75000 	ldrb	r5, [r7]
    81f8:	01550001 	cmpeq	r5, r1
    81fc:	e5d75001 	ldrb	r5, [r7, #1]
    8200:	01550002 	cmpeq	r5, r2
    8204:	0a000002 	beq	8214 <find_colon>
    8208:	e3550000 	cmp	r5, #0
    820c:	0a00000a 	beq	823c <done>
    8210:	eafffff5 	b	81ec <find_loop>

00008214 <find_colon>:
    8214:	e4d75001 	ldrb	r5, [r7], #1
    8218:	e355003a 	cmp	r5, #58	; 0x3a
    821c:	1afffffc 	bne	8214 <find_colon>
    8220:	e2877001 	add	r7, r7, #1

00008224 <store_loop>:
    8224:	e4d75001 	ldrb	r5, [r7], #1
    8228:	e4ca5001 	strb	r5, [sl], #1
    822c:	e1550003 	cmp	r5, r3
    8230:	1afffffb 	bne	8224 <store_loop>

00008234 <almost_done>:
    8234:	e3a00000 	mov	r0, #0
    8238:	e44a0001 	strb	r0, [sl], #-1

0000823c <done>:
    823c:	e1a0f00e 	mov	pc, lr

00008240 <strcat>:
    8240:	e4d13001 	ldrb	r3, [r1], #1
    8244:	e4ca3001 	strb	r3, [sl], #1
    8248:	e3530000 	cmp	r3, #0
    824c:	1afffffb 	bne	8240 <strcat>
    8250:	e24aa001 	sub	sl, sl, #1
    8254:	e1a0f00e 	mov	pc, lr

00008258 <center_and_print>:
    8258:	e92d4000 	push	{lr}
    825c:	e28b1043 	add	r1, fp, #67	; 0x43
    8260:	eb00000b 	bl	8294 <write_stdout>

00008264 <str_loop2>:
    8264:	e59f2094 	ldr	r2, [pc, #148]	; 8300 <addresses>
    8268:	e04a2002 	sub	r2, sl, r2
    826c:	e2622051 	rsb	r2, r2, #81	; 0x51
    8270:	1a000005 	bne	828c <done_center>
    8274:	e1b030a2 	lsrs	r3, r2, #1
    8278:	e2a33000 	adc	r3, r3, #0
    827c:	e3a00000 	mov	r0, #0
    8280:	eb00000c 	bl	82b8 <num_to_ascii>
    8284:	e28b1046 	add	r1, fp, #70	; 0x46
    8288:	eb000001 	bl	8294 <write_stdout>

0000828c <done_center>:
    828c:	e59f106c 	ldr	r1, [pc, #108]	; 8300 <addresses>
    8290:	e8bd4000 	pop	{lr}

00008294 <write_stdout>:
    8294:	e3a02000 	mov	r2, #0

00008298 <str_loop1>:
    8298:	e2822001 	add	r2, r2, #1
    829c:	e7d13002 	ldrb	r3, [r1, r2]
    82a0:	e3530000 	cmp	r3, #0
    82a4:	1afffffb 	bne	8298 <str_loop1>

000082a8 <write_stdout_we_know_size>:
    82a8:	e3a00001 	mov	r0, #1
    82ac:	e3a07004 	mov	r7, #4
    82b0:	ef000000 	svc	0x00000000
    82b4:	e1a0f00e 	mov	pc, lr

000082b8 <num_to_ascii>:
    82b8:	e92d4400 	push	{sl, lr}
    82bc:	e28caf72 	add	sl, ip, #456	; 0x1c8
    82c0:	e28aa00a 	add	sl, sl, #10

000082c4 <div_by_10>:
    82c4:	e59f405c 	ldr	r4, [pc, #92]	; 8328 <literals+0xc>
    82c8:	e0435f23 	sub	r5, r3, r3, lsr #30
    82cc:	e0878594 	umull	r8, r7, r4, r5
    82d0:	e3a0400a 	mov	r4, #10
    82d4:	e0080497 	mul	r8, r7, r4
    82d8:	e0438008 	sub	r8, r3, r8
    82dc:	e2888030 	add	r8, r8, #48	; 0x30
    82e0:	e44a8001 	strb	r8, [sl], #-1
    82e4:	e2973000 	adds	r3, r7, #0
    82e8:	1afffff5 	bne	82c4 <div_by_10>

000082ec <write_out>:
    82ec:	e28a1001 	add	r1, sl, #1
    82f0:	e8bd4400 	pop	{sl, lr}
    82f4:	e3500000 	cmp	r0, #0
    82f8:	1affffd0 	bne	8240 <strcat>
    82fc:	eaffffe4 	b	8294 <write_stdout>

00008300 <addresses>:
    8300:	00009ac0 	andeq	r9, r0, r0, asr #21

00008304 <R_val>:
    8304:	000003c0 	andeq	r0, r0, r0, asr #7

00008308 <logo_addr>:
    8308:	00008387 	andeq	r8, r0, r7, lsl #7

0000830c <logo_end_addr>:
    830c:	000084a2 	andeq	r8, r0, r2, lsr #9

00008310 <text_addr>:
    8310:	00008680 	andeq	r8, r0, r0, lsl #13

00008314 <data_begin_addr>:
    8314:	0000832c 	andeq	r8, r0, ip, lsr #6

00008318 <bss_begin_addr>:
    8318:	000084a8 	andeq	r8, r0, r8, lsr #9

0000831c <literals>:
    831c:	00008300 	andeq	r8, r0, r0, lsl #6
    8320:	000003ff 	strdeq	r0, [r0], -pc	; <UNPREDICTABLE>
    8324:	00008ac0 	andeq	r8, r0, r0, asr #21
    8328:	1999999a 	ldmibne	r9, {r1, r3, r4, r7, r8, fp, ip, pc}
