
./ll.riscv-rv64c.fakeproc:     file format elf64-littleriscv


Disassembly of section .text:

0000000000010078 <_start>:
   10078:	00000a97          	auipc	s5,0x0
   1007c:	20ea8a93          	addi	s5,s5,526 # 10286 <data_begin>
   10080:	17ca8a13          	addi	s4,s5,380
   10084:	00002c97          	auipc	s9,0x2
   10088:	9a4c8c93          	addi	s9,s9,-1628 # 11a28 <out_buffer>
   1008c:	8466                	mv	s0,s9
   1008e:	05aa8493          	addi	s1,s5,90
   10092:	3c000613          	li	a2,960
   10096:	11b48293          	addi	t0,s1,283
   1009a:	226a0b13          	addi	s6,s4,550
   1009e:	00010d37          	lui	s10,0x10
   100a2:	f00d0d1b          	addiw	s10,s10,-256
   100a6:	0ff00d93          	li	s11,255

00000000000100aa <decompression_loop>:
   100aa:	0004c703          	lbu	a4,0(s1)
   100ae:	0485                	addi	s1,s1,1
   100b0:	01a76733          	or	a4,a4,s10

00000000000100b4 <test_flags>:
   100b4:	04548563          	beq	s1,t0,100fe <done_logo>
   100b8:	00177693          	andi	a3,a4,1
   100bc:	8305                	srli	a4,a4,0x1
   100be:	ee85                	bnez	a3,100f6 <discrete_char>

00000000000100c0 <offset_length>:
   100c0:	0004d503          	lhu	a0,0(s1)
   100c4:	0489                	addi	s1,s1,2
   100c6:	00a55593          	srli	a1,a0,0xa
   100ca:	058d                	addi	a1,a1,3

00000000000100cc <output_loop>:
   100cc:	3ff57513          	andi	a0,a0,1023
   100d0:	00ab06b3          	add	a3,s6,a0
   100d4:	429c                	lw	a5,0(a3)
   100d6:	0505                	addi	a0,a0,1

00000000000100d8 <store_byte>:
   100d8:	00f40023          	sb	a5,0(s0)
   100dc:	0405                	addi	s0,s0,1
   100de:	00cb06b3          	add	a3,s6,a2
   100e2:	00f68023          	sb	a5,0(a3)
   100e6:	0605                	addi	a2,a2,1
   100e8:	15fd                	addi	a1,a1,-1
   100ea:	3ff67613          	andi	a2,a2,1023
   100ee:	fdf9                	bnez	a1,100cc <output_loop>
   100f0:	fdb712e3          	bne	a4,s11,100b4 <test_flags>
   100f4:	bf5d                	j	100aa <decompression_loop>

00000000000100f6 <discrete_char>:
   100f6:	409c                	lw	a5,0(s1)
   100f8:	0485                	addi	s1,s1,1
   100fa:	4585                	li	a1,1
   100fc:	bff1                	j	100d8 <store_byte>

00000000000100fe <done_logo>:
   100fe:	85e6                	mv	a1,s9
   10100:	8456                	mv	s0,s5
   10102:	13a000ef          	jal	ra,1023c <write_stdout>

0000000000010106 <first_line>:
   10106:	00000b17          	auipc	s6,0x0
   1010a:	16eb0b13          	addi	s6,s6,366 # 10274 <strcat>
   1010e:	020a0513          	addi	a0,s4,32
   10112:	0a000893          	li	a7,160
   10116:	00000073          	ecall
   1011a:	8ae6                	mv	s5,s9
   1011c:	020a0993          	addi	s3,s4,32
   10120:	9b02                	jalr	s6
   10122:	89a2                	mv	s3,s0
   10124:	9b02                	jalr	s6
   10126:	0a2a0993          	addi	s3,s4,162
   1012a:	9b02                	jalr	s6
   1012c:	00a40993          	addi	s3,s0,10
   10130:	9b02                	jalr	s6
   10132:	0e3a0993          	addi	s3,s4,227
   10136:	9b02                	jalr	s6
   10138:	0d2000ef          	jal	ra,1020a <center_and_print>

000000000001013c <middle_line>:
   1013c:	8ae6                	mv	s5,s9
   1013e:	f9c00513          	li	a0,-100
   10142:	04740593          	addi	a1,s0,71
   10146:	4601                	li	a2,0
   10148:	03800893          	li	a7,56
   1014c:	00000073          	ecall
   10150:	87aa                	mv	a5,a0
   10152:	628a0593          	addi	a1,s4,1576
   10156:	6605                	lui	a2,0x1
   10158:	03f00893          	li	a7,63
   1015c:	00000073          	ecall
   10160:	853e                	mv	a0,a5
   10162:	03900893          	li	a7,57
   10166:	00000073          	ecall

000000000001016a <number_of_cpus>:
   1016a:	05540993          	addi	s3,s0,85
   1016e:	9b02                	jalr	s6

0000000000010170 <chip_name>:
   10170:	6c6562b7          	lui	t0,0x6c656
   10174:	46f2829b          	addiw	t0,t0,1135
   10178:	4e29                	li	t3,10
   1017a:	05e000ef          	jal	ra,101d8 <find_string>
   1017e:	01640993          	addi	s3,s0,22
   10182:	9b02                	jalr	s6

0000000000010184 <ram>:
   10184:	1a8a0513          	addi	a0,s4,424
   10188:	872a                	mv	a4,a0
   1018a:	0b300893          	li	a7,179
   1018e:	00000073          	ecall
   10192:	7318                	ld	a4,32(a4)
   10194:	8351                	srli	a4,a4,0x14
   10196:	4505                	li	a0,1
   10198:	0be000ef          	jal	ra,10256 <num_to_ascii>
   1019c:	02340993          	addi	s3,s0,35
   101a0:	9b02                	jalr	s6

00000000000101a2 <bogomips>:
   101a2:	535052b7          	lui	t0,0x53505
   101a6:	94d2829b          	addiw	t0,t0,-1715
   101aa:	4e29                	li	t3,10
   101ac:	02c000ef          	jal	ra,101d8 <find_string>
   101b0:	02b40993          	addi	s3,s0,43
   101b4:	9b02                	jalr	s6
   101b6:	054000ef          	jal	ra,1020a <center_and_print>

00000000000101ba <last_line>:
   101ba:	8ae6                	mv	s5,s9
   101bc:	061a0993          	addi	s3,s4,97
   101c0:	9b02                	jalr	s6
   101c2:	048000ef          	jal	ra,1020a <center_and_print>
   101c6:	03b40593          	addi	a1,s0,59
   101ca:	072000ef          	jal	ra,1023c <write_stdout>

00000000000101ce <exit>:
   101ce:	4509                	li	a0,2
   101d0:	05d00893          	li	a7,93
   101d4:	00000073          	ecall

00000000000101d8 <find_string>:
   101d8:	628a0713          	addi	a4,s4,1576

00000000000101dc <find_loop>:
   101dc:	4314                	lw	a3,0(a4)
   101de:	0705                	addi	a4,a4,1
   101e0:	c685                	beqz	a3,10208 <done>
   101e2:	fed29de3          	bne	t0,a3,101dc <find_loop>

00000000000101e6 <find_colon>:
   101e6:	00074683          	lbu	a3,0(a4)
   101ea:	0705                	addi	a4,a4,1
   101ec:	03a00313          	li	t1,58
   101f0:	fe669be3          	bne	a3,t1,101e6 <find_colon>

00000000000101f4 <store_loop>:
   101f4:	00174683          	lbu	a3,1(a4)
   101f8:	0705                	addi	a4,a4,1
   101fa:	c699                	beqz	a3,10208 <done>
   101fc:	01c68663          	beq	a3,t3,10208 <done>
   10200:	00da8023          	sb	a3,0(s5)
   10204:	0a85                	addi	s5,s5,1
   10206:	b7fd                	j	101f4 <store_loop>

0000000000010208 <done>:
   10208:	8082                	ret

000000000001020a <center_and_print>:
   1020a:	8806                	mv	a6,ra
   1020c:	43a9                	li	t2,10
   1020e:	007a9023          	sh	t2,0(s5)
   10212:	419a87b3          	sub	a5,s5,s9
   10216:	05000713          	li	a4,80
   1021a:	00e7df63          	ble	a4,a5,10238 <done_center>
   1021e:	8f1d                	sub	a4,a4,a5
   10220:	04240593          	addi	a1,s0,66
   10224:	018000ef          	jal	ra,1023c <write_stdout>
   10228:	8305                	srli	a4,a4,0x1
   1022a:	4501                	li	a0,0
   1022c:	02a000ef          	jal	ra,10256 <num_to_ascii>
   10230:	04540593          	addi	a1,s0,69
   10234:	008000ef          	jal	ra,1023c <write_stdout>

0000000000010238 <done_center>:
   10238:	85e6                	mv	a1,s9
   1023a:	80c2                	mv	ra,a6

000000000001023c <write_stdout>:
   1023c:	4601                	li	a2,0
   1023e:	832e                	mv	t1,a1

0000000000010240 <str_loop1>:
   10240:	2605                	addiw	a2,a2,1
   10242:	00034683          	lbu	a3,0(t1)
   10246:	0305                	addi	t1,t1,1
   10248:	fee5                	bnez	a3,10240 <str_loop1>

000000000001024a <write_stdout_we_know_size>:
   1024a:	4505                	li	a0,1
   1024c:	04000893          	li	a7,64
   10250:	00000073          	ecall
   10254:	8082                	ret

0000000000010256 <num_to_ascii>:
   10256:	00aa0593          	addi	a1,s4,10

000000000001025a <div_by_10>:
   1025a:	15fd                	addi	a1,a1,-1
   1025c:	42a9                	li	t0,10
   1025e:	02577eb3          	remu	t4,a4,t0
   10262:	02575733          	divu	a4,a4,t0
   10266:	030e8e93          	addi	t4,t4,48
   1026a:	01d58023          	sb	t4,0(a1)
   1026e:	f775                	bnez	a4,1025a <div_by_10>

0000000000010270 <write_out>:
   10270:	d571                	beqz	a0,1023c <write_stdout>
   10272:	89ae                	mv	s3,a1

0000000000010274 <strcat>:
   10274:	0009c683          	lbu	a3,0(s3)
   10278:	0985                	addi	s3,s3,1
   1027a:	00da8023          	sb	a3,0(s5)
   1027e:	0a85                	addi	s5,s5,1
   10280:	faf5                	bnez	a3,10274 <strcat>
   10282:	1afd                	addi	s5,s5,-1
   10284:	8082                	ret
