
./ll.riscv-rv64c.fakeproc:     file format elf64-littleriscv


Disassembly of section .text:

0000000000010078 <_start>:
   10078:	00000a97          	auipc	s5,0x0
   1007c:	20ea8a93          	addi	s5,s5,526 # 10286 <data_begin>
   10080:	17ca8a13          	addi	s4,s5,380
   10084:	00002c97          	auipc	s9,0x2
   10088:	9a4c8c93          	addi	s9,s9,-1628 # 11a28 <out_buffer>
   1008c:	8466                	mv	s0,s9
   1008e:	05aa8493          	addi	s1,s5,90
   10092:	3c000613          	li	a2,960
   10096:	11b48293          	addi	t0,s1,283
   1009a:	226a0b13          	addi	s6,s4,550
   1009e:	00010d37          	lui	s10,0x10
   100a2:	f00d0d1b          	addiw	s10,s10,-256
   100a6:	0ff00d93          	li	s11,255

00000000000100aa <decompression_loop>:
   100aa:	0004c703          	lbu	a4,0(s1)
   100ae:	0485                	addi	s1,s1,1
   100b0:	01a76733          	or	a4,a4,s10

00000000000100b4 <test_flags>:
   100b4:	04548563          	beq	s1,t0,100fe <done_logo>
   100b8:	00177693          	andi	a3,a4,1
   100bc:	8305                	srli	a4,a4,0x1
   100be:	ee85                	bnez	a3,100f6 <discrete_char>

00000000000100c0 <offset_length>:
   100c0:	0004d503          	lhu	a0,0(s1)
   100c4:	0489                	addi	s1,s1,2
   100c6:	00a55593          	srli	a1,a0,0xa
   100ca:	058d                	addi	a1,a1,3

00000000000100cc <output_loop>:
   100cc:	3ff57513          	andi	a0,a0,1023
   100d0:	00ab06b3          	add	a3,s6,a0
   100d4:	429c                	lw	a5,0(a3)
   100d6:	0505                	addi	a0,a0,1

00000000000100d8 <store_byte>:
   100d8:	00f40023          	sb	a5,0(s0)
   100dc:	0405                	addi	s0,s0,1
   100de:	00cb06b3          	add	a3,s6,a2
   100e2:	00f68023          	sb	a5,0(a3)
   100e6:	0605                	addi	a2,a2,1
   100e8:	15fd                	addi	a1,a1,-1
   100ea:	3ff67613          	andi	a2,a2,1023
   100ee:	fdf9                	bnez	a1,100cc <output_loop>
   100f0:	fdb712e3          	bne	a4,s11,100b4 <test_flags>
   100f4:	bf5d                	j	100aa <decompression_loop>

00000000000100f6 <discrete_char>:
   100f6:	409c                	lw	a5,0(s1)
   100f8:	0485                	addi	s1,s1,1
   100fa:	4585                	li	a1,1
   100fc:	bff1                	j	100d8 <store_byte>

00000000000100fe <done_logo>:
   100fe:	85e6                	mv	a1,s9
   10100:	8456                	mv	s0,s5
   10102:	13a000ef          	jal	ra,1023c <write_stdout>

0000000000010106 <first_line>:
   10106:	00000b17          	auipc	s6,0x0
   1010a:	16eb0b13          	addi	s6,s6,366 # 10274 <strcat>
   1010e:	020a0513          	addi	a0,s4,32
   10112:	0a000893          	li	a7,160
   10116:	00000073          	ecall
   1011a:	8ae6                	mv	s5,s9
   1011c:	020a0993          	addi	s3,s4,32
   10120:	9b02                	jalr	s6
   10122:	89a2                	mv	s3,s0
   10124:	9b02                	jalr	s6
   10126:	0a2a0993          	addi	s3,s4,162
   1012a:	9b02                	jalr	s6
   1012c:	00a40993          	addi	s3,s0,10
   10130:	9b02                	jalr	s6
   10132:	0e3a0993          	addi	s3,s4,227
   10136:	9b02                	jalr	s6
   10138:	0d2000ef          	jal	ra,1020a <center_and_print>

000000000001013c <middle_line>:
   1013c:	8ae6                	mv	s5,s9
   1013e:	f9c00513          	li	a0,-100
   10142:	04740593          	addi	a1,s0,71
   10146:	4601                	li	a2,0
   10148:	03800893          	li	a7,56
   1014c:	00000073          	ecall
   10150:	87aa                	mv	a5,a0
   10152:	628a0593          	addi	a1,s4,1576
   10156:	6605                	lui	a2,0x1
   10158:	03f00893          	li	a7,63
   1015c:	00000073          	ecall
   10160:	853e                	mv	a0,a5
   10162:	03900893          	li	a7,57
   10166:	00000073          	ecall

000000000001016a <number_of_cpus>:
   1016a:	05540993          	addi	s3,s0,85
   1016e:	9b02                	jalr	s6

0000000000010170 <chip_name>:
   10170:	6c6562b7          	lui	t0,0x6c656
   10174:	46f2829b          	addiw	t0,t0,1135
   10178:	4e29                	li	t3,10
   1017a:	05e000ef          	jal	ra,101d8 <find_string>
   1017e:	01640993          	addi	s3,s0,22
   10182:	9b02                	jalr	s6

0000000000010184 <ram>:
   10184:	1a8a0513          	addi	a0,s4,424
   10188:	872a                	mv	a4,a0
   1018a:	0b300893          	li	a7,179
   1018e:	00000073          	ecall
   10192:	7318                	ld	a4,32(a4)
   10194:	8351                	srli	a4,a4,0x14
   10196:	4505                	li	a0,1
   10198:	0be000ef          	jal	ra,10256 <num_to_ascii>
   1019c:	02340993          	addi	s3,s0,35
   101a0:	9b02                	jalr	s6

00000000000101a2 <bogomips>:
   101a2:	535052b7          	lui	t0,0x53505
   101a6:	94d2829b          	addiw	t0,t0,-1715
   101aa:	4e29                	li	t3,10
   101ac:	02c000ef          	jal	ra,101d8 <find_string>
   101b0:	02b40993          	addi	s3,s0,43
   101b4:	9b02                	jalr	s6
   101b6:	054000ef          	jal	ra,1020a <center_and_print>

00000000000101ba <last_line>:
   101ba:	8ae6                	mv	s5,s9
   101bc:	061a0993          	addi	s3,s4,97
   101c0:	9b02                	jalr	s6
   101c2:	048000ef          	jal	ra,1020a <center_and_print>
   101c6:	03b40593          	addi	a1,s0,59
   101ca:	072000ef          	jal	ra,1023c <write_stdout>

00000000000101ce <exit>:
   101ce:	4509                	li	a0,2
   101d0:	05d00893          	li	a7,93
   101d4:	00000073          	ecall

00000000000101d8 <find_string>:
   101d8:	628a0713          	addi	a4,s4,1576

00000000000101dc <find_loop>:
   101dc:	4314                	lw	a3,0(a4)
   101de:	0705                	addi	a4,a4,1
   101e0:	c685                	beqz	a3,10208 <done>
   101e2:	fed29de3          	bne	t0,a3,101dc <find_loop>

00000000000101e6 <find_colon>:
   101e6:	00074683          	lbu	a3,0(a4)
   101ea:	0705                	addi	a4,a4,1
   101ec:	03a00313          	li	t1,58
   101f0:	fe669be3          	bne	a3,t1,101e6 <find_colon>

00000000000101f4 <store_loop>:
   101f4:	00174683          	lbu	a3,1(a4)
   101f8:	0705                	addi	a4,a4,1
   101fa:	c699                	beqz	a3,10208 <done>
   101fc:	01c68663          	beq	a3,t3,10208 <done>
   10200:	00da8023          	sb	a3,0(s5)
   10204:	0a85                	addi	s5,s5,1
   10206:	b7fd                	j	101f4 <store_loop>

0000000000010208 <done>:
   10208:	8082                	ret

000000000001020a <center_and_print>:
   1020a:	8806                	mv	a6,ra
   1020c:	43a9                	li	t2,10
   1020e:	007a9023          	sh	t2,0(s5)
   10212:	419a87b3          	sub	a5,s5,s9
   10216:	05000713          	li	a4,80
   1021a:	00e7df63          	ble	a4,a5,10238 <done_center>
   1021e:	8f1d                	sub	a4,a4,a5
   10220:	04240593          	addi	a1,s0,66
   10224:	018000ef          	jal	ra,1023c <write_stdout>
   10228:	8305                	srli	a4,a4,0x1
   1022a:	4501                	li	a0,0
   1022c:	02a000ef          	jal	ra,10256 <num_to_ascii>
   10230:	04540593          	addi	a1,s0,69
   10234:	008000ef          	jal	ra,1023c <write_stdout>

0000000000010238 <done_center>:
   10238:	85e6                	mv	a1,s9
   1023a:	80c2                	mv	ra,a6

000000000001023c <write_stdout>:
   1023c:	4601                	li	a2,0
   1023e:	832e                	mv	t1,a1

0000000000010240 <str_loop1>:
   10240:	2605                	addiw	a2,a2,1
   10242:	00034683          	lbu	a3,0(t1)
   10246:	0305                	addi	t1,t1,1
   10248:	fee5                	bnez	a3,10240 <str_loop1>

000000000001024a <write_stdout_we_know_size>:
   1024a:	4505                	li	a0,1
   1024c:	04000893          	li	a7,64
   10250:	00000073          	ecall
   10254:	8082                	ret

0000000000010256 <num_to_ascii>:
   10256:	00aa0593          	addi	a1,s4,10

000000000001025a <div_by_10>:
   1025a:	15fd                	addi	a1,a1,-1
   1025c:	42a9                	li	t0,10
   1025e:	02577eb3          	remu	t4,a4,t0
   10262:	02575733          	divu	a4,a4,t0
   10266:	030e8e93          	addi	t4,t4,48
   1026a:	01d58023          	sb	t4,0(a1)
   1026e:	f775                	bnez	a4,1025a <div_by_10>

0000000000010270 <write_out>:
   10270:	d571                	beqz	a0,1023c <write_stdout>
   10272:	89ae                	mv	s3,a1

0000000000010274 <strcat>:
   10274:	0009c683          	lbu	a3,0(s3)
   10278:	0985                	addi	s3,s3,1
   1027a:	00da8023          	sb	a3,0(s5)
   1027e:	0a85                	addi	s5,s5,1
   10280:	faf5                	bnez	a3,10274 <strcat>
   10282:	1afd                	addi	s5,s5,-1
   10284:	8082                	ret

Disassembly of section .data:

0000000000010286 <data_begin>:
   10286:	5620                	lw	s0,104(a2)
   10288:	7265                	lui	tp,0xffff9
   1028a:	6e6f6973          	csrrsi	s2,0x6e6,30
   1028e:	0020                	addi	s0,sp,8

0000000000010290 <compiled_string>:
   10290:	202c                	fld	fa1,64(s0)
   10292:	706d6f43          	fmadd.s	ft10,fs10,ft6,fa4,unknown
   10296:	6c69                	lui	s8,0x1a
   10298:	6465                	lui	s0,0x19
   1029a:	0020                	addi	s0,sp,8

000000000001029c <processor>:
   1029c:	5020                	lw	s0,96(s0)
   1029e:	6f72                	ld	t5,280(sp)
   102a0:	73736563          	bltu	t1,s7,109ca <text_buf+0x3a2>
   102a4:	202c726f          	jal	tp,d74a6 <_end+0xc1a7e>
	...

00000000000102a9 <ram_comma>:
   102a9:	204d                	0x204d
   102ab:	4152                	lw	sp,20(sp)
   102ad:	2c4d                	addiw	s8,s8,19
   102af:	0020                	addi	s0,sp,8

00000000000102b1 <bogo_total>:
   102b1:	4220                	lw	s0,64(a2)
   102b3:	6d6f676f          	jal	a4,106989 <_end+0xf0f61>
   102b7:	7069                	0x7069
   102b9:	6f542073          	csrs	0x6f5,s0
   102bd:	6174                	ld	a3,192(a0)
   102bf:	006c                	addi	a1,sp,12

00000000000102c1 <default_colors>:
   102c1:	6d305b1b          	0x6d305b1b
   102c5:	0a0a                	slli	s4,s4,0x2
	...

00000000000102c8 <escape>:
   102c8:	43005b1b          	0x43005b1b

00000000000102cb <C>:
   102cb:	72700043          	fmadd.d	ft0,ft0,ft7,fa4,rne

00000000000102cd <cpuinfo>:
   102cd:	7270                	ld	a2,224(a2)
   102cf:	632f636f          	jal	t1,106901 <_end+0xf0ed9>
   102d3:	2e70                	fld	fa2,216(a2)
   102d5:	6972                	ld	s2,280(sp)
   102d7:	00766373          	csrrsi	t1,0x7,12

00000000000102db <one>:
   102db:	20656e4f          	fnmadd.s	ft8,fa0,ft6,ft4,unknown
	...

00000000000102e0 <logo>:
   102e0:	1bff                	0x1bff
   102e2:	313b305b          	0x313b305b
   102e6:	9f37333b          	0x9f37333b
   102ea:	6d37343b          	0x6d37343b
   102ee:	c0f7cc23          	0xc0f7cc23
   102f2:	308d3307          	fld	ft6,776(s10) # 10308 <logo+0x28>
   102f6:	1bc8                	addi	a0,sp,500
   102f8:	07c45b1b          	0x7c45b1b
   102fc:	0c1c1fcb          	0xc1c1fcb
   10300:	30340f3b          	0x30340f3b
   10304:	0a6d                	addi	s4,s4,27
   10306:	f7c0                	sd	s0,168(a5)
   10308:	6001                	0x6001
   1030a:	381a                	fld	fa6,416(sp)
   1030c:	9c2c                	0x9c2c
   1030e:	1b1f 335b 6d31      	0x6d31335b1b1f
   10314:	04cc                	addi	a1,sp,580
   10316:	ac41                	j	105a6 <uname_info+0x186>
   10318:	240d                	addiw	s0,s0,3
   1031a:	1c02                	slli	s8,s8,0x20
   1031c:	4f10                	lw	a2,24(a4)
   1031e:	200d                	0x200d
   10320:	4110                	lw	a2,0(a0)
   10322:	34839893          	0x34839893
   10326:	341c                	fld	fa5,40(s0)
   10328:	10cc                	addi	a1,sp,100
   1032a:	0c10                	addi	a2,sp,528
   1032c:	6f24                	ld	s1,88(a4)
   1032e:	ec39                	bnez	s0,1038c <logo+0xac>
   10330:	33081ca7          	0x33081ca7
   10334:	1416                	slli	s0,s0,0x25
   10336:	5589                	li	a1,-30
   10338:	602c                	ld	a1,64(s0)
   1033a:	2b00                	fld	fs0,16(a4)
   1033c:	d661                	beqz	a2,10304 <logo+0x24>
   1033e:	e271                	bnez	a2,10402 <ascii_buffer+0x2>
   10340:	cbc8                	sw	a0,20(a5)
   10342:	d408                	sw	a0,40(s0)
   10344:	d309                	beqz	a4,10246 <str_loop1+0x6>
   10346:	2b10                	fld	fa2,16(a4)
   10348:	f559                	bnez	a0,102d6 <cpuinfo+0x9>
   1034a:	00d1                	addi	ra,ra,20
   1034c:	1180                	addi	s0,sp,224
   1034e:	18d2                	slli	a7,a7,0x34
   10350:	280d                	addiw	a6,a6,3
   10352:	141c                	addi	a5,sp,544
   10354:	2c0d                	addiw	s8,s8,3
   10356:	1c1c                	addi	a5,sp,560
   10358:	4af0                	lw	a2,84(a3)
   1035a:	5b1a                	lw	s6,164(sp)
   1035c:	0d00                	addi	s0,sp,656
   1035e:	5f50                	lw	a2,60(a4)
   10360:	8765                	srai	a4,a4,0x19
   10362:	2b65                	addiw	s6,s6,25
   10364:	f555                	bnez	a0,10310 <logo+0x30>
   10366:	cdcd                	beqz	a1,10420 <uname_info>
   10368:	cd28                	sw	a0,88(a0)
   1036a:	8914                	0x8914
   1036c:	0041                	c.addi	zero,16
   1036e:	871d                	srai	a4,a4,0x7
   10370:	4b42                	lw	s6,16(sp)
   10372:	5372                	lw	t1,60(sp)
   10374:	781c                	ld	a5,48(s0)
   10376:	6d87620f          	0x6d87620f
   1037a:	5855                	li	a6,-11
   1037c:	e800c1f7          	0xe800c1f7
   10380:	4997f42b          	0x4997f42b
   10384:	3d78                	fld	fa4,248(a0)
   10386:	1bb0                	addi	a2,sp,504
   10388:	975f 12b0 ab2b      	0xab2b12b0975f
   1038e:	10ca                	slli	ra,ra,0x32
   10390:	16df f51a f55a      	0xf55af51a16df
   10396:	3fd9                	addiw	t6,t6,-10
   10398:	92561b33          	0x92561b33
   1039c:	0002b05b          	0x2b05b
   103a0:	1d0c                	addi	a1,sp,688
   103a2:	39acc8d3          	0x39acc8d3
   103a6:	f6326617          	auipc	a2,0xf6326
   103aa:	6d6e                	ld	s10,216(sp)
   103ac:	44ec                	lw	a1,76(s1)
   103ae:	5e60                	lw	s0,124(a2)
   103b0:	af08                	fsd	fa0,24(a4)
   103b2:	a60a                	fsd	ft2,264(sp)
   103b4:	1469                	addi	s0,s0,-6
   103b6:	3001                	0x3001
   103b8:	1fde0b33          	0x1fde0b33
   103bc:	0f31                	addi	t5,t5,12
   103be:	af00bcd3          	0xaf00bcd3
   103c2:	aa56194f          	fnmadd.d	fs2,fa2,ft5,fs5,rtz
   103c6:	5245                	li	tp,-15
   103c8:	465228db          	0x465228db
   103cc:	087f                	0x87f
   103ce:	0023db53          	fadd.s	fs6,ft7,ft2,unknown
   103d2:	55a9                	li	a1,-22
   103d4:	35aa                	fld	fa1,168(sp)
   103d6:	2118                	fld	fa4,0(a0)
   103d8:	6812                	ld	a6,256(sp)
   103da:	2a91                	addiw	s5,s5,4
   103dc:	22c8                	fld	fa0,128(a3)
   103de:	68b2                	ld	a7,264(sp)
   103e0:	2d70                	fld	fa2,216(a0)
   103e2:	c600                	sw	s0,8(a2)
   103e4:	b250                	fsd	fa2,160(a2)
   103e6:	9179                	srli	a0,a0,0x3e
   103e8:	704a                	0x704a
   103ea:	f831                	bnez	s0,1033e <logo+0x5e>
   103ec:	f351                	bnez	a4,10370 <logo+0x90>
   103ee:	dd28                	sw	a0,120(a0)
   103f0:	0817ff17          	auipc	t5,0x817f
   103f4:	3602                	fld	fa2,32(sp)
   103f6:	42e52403          	lw	s0,1070(a0)
   103fa:	0a 03 a0 03 a1          	Address 0x00000000000103fa is out of bounds.


Disassembly of section .bss:

0000000000010400 <ascii_buffer>:
	...

0000000000010420 <uname_info>:
	...

00000000000105a8 <sysinfo_buff>:
	...

0000000000010628 <text_buf>:
	...

0000000000010a28 <disk_buffer>:
	...

0000000000011a28 <out_buffer>:
	...
