
ll.arm64:     file format elf64-littleaarch64


Disassembly of section .text:

0000000000400078 <_start>:
  400078:	1000cf41 	adr	x1, 401a60 <out_buffer>
  40007c:	d2807802 	mov	x2, #0x3c0                 	// #960
  400080:	70001543 	adr	x3, 40032b <logo>
  400084:	50001e08 	adr	x8, 400446 <_edata>
  400088:	10002cc9 	adr	x9, 400620 <text_buf>

000000000040008c <decompression_loop>:
  40008c:	38401465 	ldrb	w5, [x3],#1
  400090:	32181ca5 	orr	w5, w5, #0xff00

0000000000400094 <test_flags>:
  400094:	eb08007f 	cmp	x3, x8
  400098:	540002aa 	b.ge	4000ec <done_logo>
  40009c:	36000085 	tbz	w5, #0, 4000ac <offset_length>

00000000004000a0 <discrete_char>:
  4000a0:	38401464 	ldrb	w4, [x3],#1
  4000a4:	d2800026 	mov	x6, #0x1                   	// #1
  4000a8:	54000101 	b.ne	4000c8 <store_byte>

00000000004000ac <offset_length>:
  4000ac:	78402464 	ldrh	w4, [x3],#2
  4000b0:	aa0403e7 	mov	x7, x4
  4000b4:	d2800060 	mov	x0, #0x3                   	// #3
  4000b8:	8b442806 	add	x6, x0, x4, lsr #10

00000000004000bc <output_loop>:
  4000bc:	924024e7 	and	x7, x7, #0x3ff
  4000c0:	38676924 	ldrb	w4, [x9,x7]
  4000c4:	910004e7 	add	x7, x7, #0x1

00000000004000c8 <store_byte>:
  4000c8:	38001424 	strb	w4, [x1],#1
  4000cc:	38226924 	strb	w4, [x9,x2]
  4000d0:	91000442 	add	x2, x2, #0x1
  4000d4:	92402442 	and	x2, x2, #0x3ff
  4000d8:	f10004c6 	subs	x6, x6, #0x1
  4000dc:	54ffff01 	b.ne	4000bc <output_loop>
  4000e0:	d341fca5 	lsr	x5, x5, #1
  4000e4:	3747fd85 	tbnz	w5, #8, 400094 <test_flags>
  4000e8:	17ffffe9 	b	40008c <decompression_loop>

00000000004000ec <done_logo>:
  4000ec:	1000cba1 	adr	x1, 401a60 <out_buffer>
  4000f0:	9400005d 	bl	400264 <write_stdout>

00000000004000f4 <first_line>:
  4000f4:	10001aa0 	adr	x0, 400448 <uname_info>
  4000f8:	d2801408 	mov	x8, #0xa0                  	// #160
  4000fc:	d4000001 	svc	#0x0
  400100:	10001a41 	adr	x1, 400448 <uname_info>
  400104:	1000caea 	adr	x10, 401a60 <out_buffer>
  400108:	9400006b 	bl	4002b4 <strcat>
  40010c:	10000e21 	adr	x1, 4002d0 <ver_string>
  400110:	94000069 	bl	4002b4 <strcat>
  400114:	50001da1 	adr	x1, 4004ca <uname_info+0x82>
  400118:	94000067 	bl	4002b4 <strcat>
  40011c:	50000de1 	adr	x1, 4002da <compiled_string>
  400120:	94000065 	bl	4002b4 <strcat>
  400124:	70001f21 	adr	x1, 40050b <uname_info+0xc3>
  400128:	94000063 	bl	4002b4 <strcat>
  40012c:	d2800143 	mov	x3, #0xa                   	// #10
  400130:	78002543 	strh	w3, [x10],#2
  400134:	9400003d 	bl	400228 <center_and_print>

0000000000400138 <middle_line>:
  400138:	1000c94a 	adr	x10, 401a60 <out_buffer>
  40013c:	92800c60 	mov	x0, #0xffffffffffffff9c    	// #-100
  400140:	10000ec1 	adr	x1, 400318 <cpuinfo>
  400144:	d2800002 	mov	x2, #0x0                   	// #0
  400148:	d2800708 	mov	x8, #0x38                  	// #56
  40014c:	d4000001 	svc	#0x0
  400150:	aa0003e5 	mov	x5, x0
  400154:	10004861 	adr	x1, 400a60 <disk_buffer>
  400158:	d2820002 	mov	x2, #0x1000                	// #4096
  40015c:	d28007e8 	mov	x8, #0x3f                  	// #63
  400160:	d4000001 	svc	#0x0
  400164:	aa0503e0 	mov	x0, x5
  400168:	d2800728 	mov	x8, #0x39                  	// #57
  40016c:	d4000001 	svc	#0x0

0000000000400170 <number_of_cpus>:
  400170:	50000da1 	adr	x1, 400326 <one>
  400174:	94000050 	bl	4002b4 <strcat>

0000000000400178 <chip_name>:
  400178:	18000a80 	ldr	w0, 4002c8 <literals>
  40017c:	d2800403 	mov	x3, #0x20                  	// #32
  400180:	9400001c 	bl	4001f0 <find_string>
  400184:	50000b01 	adr	x1, 4002e6 <processor>
  400188:	9400004b 	bl	4002b4 <strcat>
  40018c:	10002220 	adr	x0, 4005d0 <sysinfo_buff>
  400190:	aa0003e3 	mov	x3, x0
  400194:	d2801668 	mov	x8, #0xb3                  	// #179
  400198:	d4000001 	svc	#0x0
  40019c:	f9401063 	ldr	x3, [x3,#32]
  4001a0:	d354fc63 	lsr	x3, x3, #20
  4001a4:	d2800020 	mov	x0, #0x1                   	// #1
  4001a8:	94000037 	bl	400284 <num_to_ascii>
  4001ac:	70000a21 	adr	x1, 4002f3 <ram_comma>
  4001b0:	94000041 	bl	4002b4 <strcat>
  4001b4:	180008c0 	ldr	w0, 4002cc <literals+0x4>
  4001b8:	d2800143 	mov	x3, #0xa                   	// #10
  4001bc:	9400000d 	bl	4001f0 <find_string>
  4001c0:	700009c1 	adr	x1, 4002fb <bogo_total>
  4001c4:	9400003c 	bl	4002b4 <strcat>
  4001c8:	94000018 	bl	400228 <center_and_print>

00000000004001cc <last_line>:
  4001cc:	1000c4aa 	adr	x10, 401a60 <out_buffer>
  4001d0:	300015c1 	adr	x1, 400489 <uname_info+0x41>
  4001d4:	94000038 	bl	4002b4 <strcat>
  4001d8:	94000014 	bl	400228 <center_and_print>
  4001dc:	10000981 	adr	x1, 40030c <default_colors>
  4001e0:	94000021 	bl	400264 <write_stdout>

00000000004001e4 <exit>:
  4001e4:	d2800000 	mov	x0, #0x0                   	// #0
  4001e8:	d2800ba8 	mov	x8, #0x5d                  	// #93
  4001ec:	d4000001 	svc	#0x0

00000000004001f0 <find_string>:
  4001f0:	10004387 	adr	x7, 400a60 <disk_buffer>

00000000004001f4 <find_loop>:
  4001f4:	b84014e5 	ldr	w5, [x7],#1
  4001f8:	34000165 	cbz	w5, 400224 <done>
  4001fc:	6b0000bf 	cmp	w5, w0
  400200:	54ffffa1 	b.ne	4001f4 <find_loop>

0000000000400204 <find_colon>:
  400204:	384014e5 	ldrb	w5, [x7],#1
  400208:	f100e8bf 	cmp	x5, #0x3a
  40020c:	54ffffc1 	b.ne	400204 <find_colon>

0000000000400210 <store_loop>:
  400210:	38401ce5 	ldrb	w5, [x7,#1]!
  400214:	38001545 	strb	w5, [x10],#1
  400218:	eb0300bf 	cmp	x5, x3
  40021c:	54ffffa1 	b.ne	400210 <store_loop>

0000000000400220 <almost_done>:
  400220:	381ff55f 	strb	wzr, [x10],#-1

0000000000400224 <done>:
  400224:	d65f03c0 	ret

0000000000400228 <center_and_print>:
  400228:	f81f0ffe 	str	x30, [sp,#-16]!
  40022c:	70000721 	adr	x1, 400313 <escape>
  400230:	9400000d 	bl	400264 <write_stdout>

0000000000400234 <str_loop2>:
  400234:	1000c162 	adr	x2, 401a60 <out_buffer>
  400238:	cb020142 	sub	x2, x10, x2
  40023c:	d2800a20 	mov	x0, #0x51                  	// #81
  400240:	eb020002 	subs	x2, x0, x2
  400244:	540000c4 	b.mi	40025c <done_center>
  400248:	d341fc43 	lsr	x3, x2, #1
  40024c:	d2800000 	mov	x0, #0x0                   	// #0
  400250:	9400000d 	bl	400284 <num_to_ascii>
  400254:	50000601 	adr	x1, 400316 <C>
  400258:	94000003 	bl	400264 <write_stdout>

000000000040025c <done_center>:
  40025c:	1000c021 	adr	x1, 401a60 <out_buffer>
  400260:	f84107fe 	ldr	x30, [sp],#16

0000000000400264 <write_stdout>:
  400264:	d2800002 	mov	x2, #0x0                   	// #0

0000000000400268 <str_loop1>:
  400268:	91000442 	add	x2, x2, #0x1
  40026c:	38626823 	ldrb	w3, [x1,x2]
  400270:	35ffffc3 	cbnz	w3, 400268 <str_loop1>

0000000000400274 <write_stdout_we_know_size>:
  400274:	d2800020 	mov	x0, #0x1                   	// #1
  400278:	d2800808 	mov	x8, #0x40                  	// #64
  40027c:	d4000001 	svc	#0x0
  400280:	d65f03c0 	ret

0000000000400284 <num_to_ascii>:
  400284:	a9bf7bea 	stp	x10, x30, [sp,#-16]!
  400288:	50001c8a 	adr	x10, 40061a <ascii_buffer+0xa>

000000000040028c <div_by_10>:
  40028c:	d2800145 	mov	x5, #0xa                   	// #10
  400290:	9ac50867 	udiv	x7, x3, x5
  400294:	9ba58ce8 	umsubl	x8, w7, w5, x3
  400298:	9100c108 	add	x8, x8, #0x30
  40029c:	381ff548 	strb	w8, [x10],#-1
  4002a0:	b10000e3 	adds	x3, x7, #0x0
  4002a4:	54ffff41 	b.ne	40028c <div_by_10>

00000000004002a8 <write_out>:
  4002a8:	91000541 	add	x1, x10, #0x1
  4002ac:	a8c17bea 	ldp	x10, x30, [sp],#16
  4002b0:	b4fffda0 	cbz	x0, 400264 <write_stdout>

00000000004002b4 <strcat>:
  4002b4:	38401423 	ldrb	w3, [x1],#1
  4002b8:	38001543 	strb	w3, [x10],#1
  4002bc:	35ffffc3 	cbnz	w3, 4002b4 <strcat>
  4002c0:	d100054a 	sub	x10, x10, #0x1
  4002c4:	d65f03c0 	ret

00000000004002c8 <literals>:
  4002c8:	636f7250 	.word	0x636f7250
  4002cc:	5350494d 	.word	0x5350494d

Disassembly of section .data:

00000000004002d0 <ver_string>:
  4002d0:	72655620 	.word	0x72655620
  4002d4:	6e6f6973 	.word	0x6e6f6973
  4002d8:	0020      	.short	0x0020

00000000004002da <compiled_string>:
  4002da:	202c      	.short	0x202c
  4002dc:	706d6f43 	.word	0x706d6f43
  4002e0:	64656c69 	.word	0x64656c69
  4002e4:	0020      	.short	0x0020

00000000004002e6 <processor>:
  4002e6:	5020      	.short	0x5020
  4002e8:	65636f72 	.word	0x65636f72
  4002ec:	726f7373 	.word	0x726f7373
  4002f0:	202c      	.short	0x202c
	...

00000000004002f3 <ram_comma>:
  4002f3:	4d          	.byte	0x4d
  4002f4:	4d415220 	.word	0x4d415220
  4002f8:	202c      	.short	0x202c
	...

00000000004002fb <bogo_total>:
  4002fb:	20          	.byte	0x20
  4002fc:	6f676f42 	.word	0x6f676f42
  400300:	7370696d 	.word	0x7370696d
  400304:	746f5420 	.word	0x746f5420
  400308:	000a6c61 	.word	0x000a6c61

000000000040030c <default_colors>:
  40030c:	6d305b1b 	.word	0x6d305b1b
  400310:	0a0a      	.short	0x0a0a
	...

0000000000400313 <escape>:
  400313:	1b          	.byte	0x1b
  400314:	005b      	.short	0x005b

0000000000400316 <C>:
  400316:	0043      	.short	0x0043

0000000000400318 <cpuinfo>:
  400318:	6f72702f 	.word	0x6f72702f
  40031c:	70632f63 	.word	0x70632f63
  400320:	666e6975 	.word	0x666e6975
  400324:	006f      	.short	0x006f

0000000000400326 <one>:
  400326:	6e4f      	.short	0x6e4f
  400328:	2065      	.short	0x2065
	...

000000000040032b <logo>:
  40032b:	ff          	.byte	0xff
  40032c:	3b305b1b 	.word	0x3b305b1b
  400330:	37333b31 	.word	0x37333b31
  400334:	37343b9f 	.word	0x37343b9f
  400338:	f7cc236d 	.word	0xf7cc236d
  40033c:	8d3307c0 	.word	0x8d3307c0
  400340:	1b1bc830 	.word	0x1b1bc830
  400344:	cb07c45b 	.word	0xcb07c45b
  400348:	3b0c1c1f 	.word	0x3b0c1c1f
  40034c:	6d30340f 	.word	0x6d30340f
  400350:	01f7c00a 	.word	0x01f7c00a
  400354:	2c381a60 	.word	0x2c381a60
  400358:	5b1b1f9c 	.word	0x5b1b1f9c
  40035c:	cc6d3133 	.word	0xcc6d3133
  400360:	0dac4104 	.word	0x0dac4104
  400364:	101c0224 	.word	0x101c0224
  400368:	10200d4f 	.word	0x10200d4f
  40036c:	83989341 	.word	0x83989341
  400370:	cc341c34 	.word	0xcc341c34
  400374:	240c1010 	.word	0x240c1010
  400378:	a7ec396f 	.word	0xa7ec396f
  40037c:	1633081c 	.word	0x1633081c
  400380:	2c558914 	.word	0x2c558914
  400384:	612b0060 	.word	0x612b0060
  400388:	c8e271d6 	.word	0xc8e271d6
  40038c:	09d408cb 	.word	0x09d408cb
  400390:	592b10d3 	.word	0x592b10d3
  400394:	8000d1f5 	.word	0x8000d1f5
  400398:	0d18d211 	.word	0x0d18d211
  40039c:	0d141c28 	.word	0x0d141c28
  4003a0:	f01c1c2c 	.word	0xf01c1c2c
  4003a4:	005b1a4a 	.word	0x005b1a4a
  4003a8:	655f500d 	.word	0x655f500d
  4003ac:	552b6587 	.word	0x552b6587
  4003b0:	28cdcdf5 	.word	0x28cdcdf5
  4003b4:	418914cd 	.word	0x418914cd
  4003b8:	42871d00 	.word	0x42871d00
  4003bc:	1c53724b 	.word	0x1c53724b
  4003c0:	87620f78 	.word	0x87620f78
  4003c4:	f758556d 	.word	0xf758556d
  4003c8:	2be800c1 	.word	0x2be800c1
  4003cc:	784997f4 	.word	0x784997f4
  4003d0:	5f1bb03d 	.word	0x5f1bb03d
  4003d4:	2b12b097 	.word	0x2b12b097
  4003d8:	df10caab 	.word	0xdf10caab
  4003dc:	5af51a16 	.word	0x5af51a16
  4003e0:	333fd9f5 	.word	0x333fd9f5
  4003e4:	5b92561b 	.word	0x5b92561b
  4003e8:	0c0002b0 	.word	0x0c0002b0
  4003ec:	acc8d31d 	.word	0xacc8d31d
  4003f0:	32661739 	.word	0x32661739
  4003f4:	ec6d6ef6 	.word	0xec6d6ef6
  4003f8:	085e6044 	.word	0x085e6044
  4003fc:	69a60aaf 	.word	0x69a60aaf
  400400:	33300114 	.word	0x33300114
  400404:	311fde0b 	.word	0x311fde0b
  400408:	00bcd30f 	.word	0x00bcd30f
  40040c:	56194faf 	.word	0x56194faf
  400410:	db5245aa 	.word	0xdb5245aa
  400414:	7f465228 	.word	0x7f465228
  400418:	23db5308 	.word	0x23db5308
  40041c:	aa55a900 	.word	0xaa55a900
  400420:	12211835 	.word	0x12211835
  400424:	c82a9168 	.word	0xc82a9168
  400428:	7068b222 	.word	0x7068b222
  40042c:	50c6002d 	.word	0x50c6002d
  400430:	4a9179b2 	.word	0x4a9179b2
  400434:	51f83170 	.word	0x51f83170
  400438:	17dd28f3 	.word	0x17dd28f3
  40043c:	020817ff 	.word	0x020817ff
  400440:	e5240336 	.word	0xe5240336
  400444:	0a42      	.short	0x0a42

Disassembly of section .bss:

0000000000400448 <uname_info>:
	...

00000000004005d0 <sysinfo_buff>:
	...

0000000000400610 <ascii_buffer>:
	...

0000000000400620 <text_buf>:
	...

0000000000400a60 <disk_buffer>:
	...

0000000000401a60 <out_buffer>:
	...
