
ll.arm64:     file format elf64-littleaarch64


Disassembly of section .text:

0000000000400078 <_start>:
  400078:	1000c241 	adr	x1, 4018c0 <out_buffer>
  40007c:	d2807802 	mov	x2, #0x3c0                 	// #960
  400080:	70000823 	adr	x3, 400187 <logo>
  400084:	500010e8 	adr	x8, 4002a2 <_edata>
  400088:	10001fc9 	adr	x9, 400480 <text_buf>
  40008c:	1000050b 	adr	x11, 40012c <div_by_10>
  400090:	100010cc 	adr	x12, 4002a8 <bss_begin>

0000000000400094 <decompression_loop>:
  400094:	38401465 	ldrb	w5, [x3],#1
  400098:	32181ca5 	orr	w5, w5, #0xff00

000000000040009c <test_flags>:
  40009c:	eb08007f 	cmp	x3, x8
  4000a0:	540002aa 	b.ge	4000f4 <done_logo>
  4000a4:	36000085 	tbz	w5, #0, 4000b4 <offset_length>

00000000004000a8 <discrete_char>:
  4000a8:	38401464 	ldrb	w4, [x3],#1
  4000ac:	d2800026 	mov	x6, #0x1                   	// #1
  4000b0:	54000101 	b.ne	4000d0 <store_byte>

00000000004000b4 <offset_length>:
  4000b4:	78402464 	ldrh	w4, [x3],#2
  4000b8:	aa0403e7 	mov	x7, x4
  4000bc:	d2800060 	mov	x0, #0x3                   	// #3
  4000c0:	8b442806 	add	x6, x0, x4, lsr #10

00000000004000c4 <output_loop>:
  4000c4:	924024e7 	and	x7, x7, #0x3ff
  4000c8:	38676924 	ldrb	w4, [x9,x7]
  4000cc:	910004e7 	add	x7, x7, #0x1

00000000004000d0 <store_byte>:
  4000d0:	38001424 	strb	w4, [x1],#1
  4000d4:	38226924 	strb	w4, [x9,x2]
  4000d8:	91000442 	add	x2, x2, #0x1
  4000dc:	92402442 	and	x2, x2, #0x3ff
  4000e0:	f10004c6 	subs	x6, x6, #0x1
  4000e4:	54ffff01 	b.ne	4000c4 <output_loop>
  4000e8:	d341fca5 	lsr	x5, x5, #1
  4000ec:	3747fd85 	tbnz	w5, #8, 40009c <test_flags>
  4000f0:	17ffffe9 	b	400094 <decompression_loop>

00000000004000f4 <done_logo>:
  4000f4:	1000be61 	adr	x1, 4018c0 <out_buffer>
  4000f8:	94000004 	bl	400108 <almost_done>

00000000004000fc <chip_name>:
  4000fc:	d2800000 	mov	x0, #0x0                   	// #0
  400100:	d2800ba8 	mov	x8, #0x5d                  	// #93
  400104:	d4000001 	svc	#0x0

0000000000400108 <almost_done>:
  400108:	d2800002 	mov	x2, #0x0                   	// #0

000000000040010c <str_loop1>:
  40010c:	91000442 	add	x2, x2, #0x1
  400110:	38626823 	ldrb	w3, [x1,x2]
  400114:	f100007f 	cmp	x3, #0x0
  400118:	54ffffa1 	b.ne	40010c <str_loop1>

000000000040011c <write_stdout_we_know_size>:
  40011c:	d2800020 	mov	x0, #0x1                   	// #1
  400120:	d2800808 	mov	x8, #0x40                  	// #64
  400124:	d4000001 	svc	#0x0
  400128:	d65f03c0 	ret
