
ll.x86_x32:     file format elf32-x86-64


Disassembly of section .text:

00400054 <_start>:
  400054:	bd c0 03 00 00       	mov    $0x3c0,%ebp
  400059:	be d2 02 40 00       	mov    $0x4002d2,%esi
  40005e:	bf 30 08 40 00       	mov    $0x400830,%edi
  400063:	57                   	push   %rdi
  400064:	31 c9                	xor    %ecx,%ecx

00400066 <decompression_loop>:
  400066:	ac                   	lods   %ds:(%rsi),%al
  400067:	b7 ff                	mov    $0xff,%bh
  400069:	88 c3                	mov    %al,%bl

0040006b <test_flags>:
  40006b:	81 fe ed 03 40 00    	cmp    $0x4003ed,%esi
  400071:	74 35                	je     4000a8 <done_logo>
  400073:	d1 eb                	shr    %ebx
  400075:	72 2c                	jb     4000a3 <discrete_char>

00400077 <offset_length>:
  400077:	66 ad                	lods   %ds:(%rsi),%ax
  400079:	89 c2                	mov    %eax,%edx
  40007b:	c1 e8 0a             	shr    $0xa,%eax
  40007e:	04 03                	add    $0x3,%al
  400080:	88 c1                	mov    %al,%cl

00400082 <output_loop>:
  400082:	80 e6 03             	and    $0x3,%dh
  400085:	8a 82 f0 03 40 00    	mov    0x4003f0(%rdx),%al
  40008b:	ff c2                	inc    %edx

0040008d <store_byte>:
  40008d:	aa                   	stos   %al,%es:(%rdi)
  40008e:	88 85 f0 03 40 00    	mov    %al,0x4003f0(%rbp)
  400094:	ff c5                	inc    %ebp
  400096:	66 81 e5 ff 03       	and    $0x3ff,%bp
  40009b:	e2 e5                	loop   400082 <output_loop>
  40009d:	08 ff                	or     %bh,%bh
  40009f:	75 ca                	jne    40006b <test_flags>
  4000a1:	eb c3                	jmp    400066 <decompression_loop>

004000a3 <discrete_char>:
  4000a3:	ac                   	lods   %ds:(%rsi),%al
  4000a4:	ff c1                	inc    %ecx
  4000a6:	eb e5                	jmp    40008d <store_byte>

004000a8 <done_logo>:
  4000a8:	5d                   	pop    %rbp
  4000a9:	89 e9                	mov    %ebp,%ecx
  4000ab:	e8 8b 01 00 00       	callq  40023b <write_stdout>

004000b0 <setup>:
  4000b0:	ba ff 01 40 00       	mov    $0x4001ff,%edx
  4000b5:	b8 3f 00 00 40       	mov    $0x4000003f,%eax
  4000ba:	bf b0 58 40 00       	mov    $0x4058b0,%edi
  4000bf:	0f 05                	syscall 
  4000c1:	89 ef                	mov    %ebp,%edi
  4000c3:	be b0 58 40 00       	mov    $0x4058b0,%esi
  4000c8:	ff d2                	callq  *%rdx
  4000ca:	be 68 02 40 00       	mov    $0x400268,%esi
  4000cf:	ff d2                	callq  *%rdx
  4000d1:	56                   	push   %rsi
  4000d2:	be 32 59 40 00       	mov    $0x405932,%esi
  4000d7:	ff d2                	callq  *%rdx
  4000d9:	5e                   	pop    %rsi
  4000da:	ff d2                	callq  *%rdx
  4000dc:	56                   	push   %rsi
  4000dd:	be 73 59 40 00       	mov    $0x405973,%esi
  4000e2:	ff d2                	callq  *%rdx
  4000e4:	89 e9                	mov    %ebp,%ecx
  4000e6:	66 b8 0a 00          	mov    $0xa,%ax
  4000ea:	66 ab                	stos   %ax,%es:(%rdi)
  4000ec:	ff d2                	callq  *%rdx
  4000ee:	e8 15 01 00 00       	callq  400208 <center_and_print>

004000f3 <middle_line>:
  4000f3:	52                   	push   %rdx
  4000f4:	b8 02 00 00 40       	mov    $0x40000002,%eax
  4000f9:	bf ad 02 40 00       	mov    $0x4002ad,%edi
  4000fe:	31 f6                	xor    %esi,%esi
  400100:	99                   	cltd   
  400101:	0f 05                	syscall 
  400103:	89 c7                	mov    %eax,%edi
  400105:	31 c0                	xor    %eax,%eax
  400107:	be 30 48 40 00       	mov    $0x404830,%esi
  40010c:	b6 10                	mov    $0x10,%dh
  40010e:	0f 05                	syscall 
  400110:	b8 03 00 00 40       	mov    $0x40000003,%eax
  400115:	0f 05                	syscall 

00400117 <number_of_cpus>:
  400117:	31 db                	xor    %ebx,%ebx

00400119 <bogo_loop>:
  400119:	8b 06                	mov    (%rsi),%eax
  40011b:	ff c6                	inc    %esi
  40011d:	3c 00                	cmp    $0x0,%al
  40011f:	74 0c                	je     40012d <done_bogo>
  400121:	3d 62 6f 67 6f       	cmp    $0x6f676f62,%eax
  400126:	75 f1                	jne    400119 <bogo_loop>
  400128:	83 c3 02             	add    $0x2,%ebx
  40012b:	eb ec                	jmp    400119 <bogo_loop>

0040012d <done_bogo>:
  40012d:	8d b4 5b b5 02 40 00 	lea    0x4002b5(%rbx,%rbx,2),%esi
  400134:	89 ef                	mov    %ebp,%edi
  400136:	5a                   	pop    %rdx
  400137:	ff d2                	callq  *%rdx
  400139:	b0 20                	mov    $0x20,%al
  40013b:	aa                   	stos   %al,%es:(%rdi)
  40013c:	53                   	push   %rbx
  40013d:	52                   	push   %rdx

0040013e <print_mhz>:
  40013e:	bb 20 4d 48 7a       	mov    $0x7a484d20,%ebx
  400143:	b4 2e                	mov    $0x2e,%ah
  400145:	83 ea 32             	sub    $0x32,%edx
  400148:	ff d2                	callq  *%rdx
  40014a:	89 d8                	mov    %ebx,%eax
  40014c:	c1 c8 08             	ror    $0x8,%eax
  40014f:	ab                   	stos   %eax,%es:(%rdi)

00400150 <chip_name>:
  400150:	bb 6e 61 6d 65       	mov    $0x656d616e,%ebx
  400155:	b4 20                	mov    $0x20,%ah
  400157:	ff d2                	callq  *%rdx
  400159:	aa                   	stos   %al,%es:(%rdi)
  40015a:	e8 87 00 00 00       	callq  4001e6 <skip_spaces>
  40015f:	5a                   	pop    %rdx
  400160:	5b                   	pop    %rbx
  400161:	5e                   	pop    %rsi
  400162:	ff d2                	callq  *%rdx
  400164:	80 fb 02             	cmp    $0x2,%bl
  400167:	75 03                	jne    40016c <print_s>
  400169:	48 ff c6             	inc    %rsi

0040016c <print_s>:
  40016c:	ff d2                	callq  *%rdx
  40016e:	56                   	push   %rsi
  40016f:	52                   	push   %rdx
  400170:	57                   	push   %rdi
  400171:	b8 63 00 00 40       	mov    $0x40000063,%eax
  400176:	bf 30 58 40 00       	mov    $0x405830,%edi
  40017b:	0f 05                	syscall 
  40017d:	5f                   	pop    %rdi
  40017e:	48 8b 04 25 50 58 40 	mov    0x405850,%rax
  400185:	00 
  400186:	48 c1 e8 14          	shr    $0x14,%rax
  40018a:	83 d0 00             	adc    $0x0,%eax
  40018d:	e8 c0 00 00 00       	callq  400252 <num_to_ascii>
  400192:	5a                   	pop    %rdx
  400193:	5e                   	pop    %rsi
  400194:	ff d2                	callq  *%rdx
  400196:	56                   	push   %rsi
  400197:	bb 6d 69 70 73       	mov    $0x7370696d,%ebx
  40019c:	b4 0a                	mov    $0xa,%ah
  40019e:	e8 2a 00 00 00       	callq  4001cd <find_string>
  4001a3:	5e                   	pop    %rsi
  4001a4:	ff d2                	callq  *%rdx
  4001a6:	56                   	push   %rsi
  4001a7:	89 e9                	mov    %ebp,%ecx
  4001a9:	51                   	push   %rcx
  4001aa:	e8 59 00 00 00       	callq  400208 <center_and_print>

004001af <last_line>:
  4001af:	89 ef                	mov    %ebp,%edi
  4001b1:	be f1 58 40 00       	mov    $0x4058f1,%esi
  4001b6:	ff d2                	callq  *%rdx
  4001b8:	59                   	pop    %rcx
  4001b9:	e8 4a 00 00 00       	callq  400208 <center_and_print>
  4001be:	59                   	pop    %rcx
  4001bf:	e8 77 00 00 00       	callq  40023b <write_stdout>

004001c4 <exit>:
  4001c4:	b8 3c 00 00 40       	mov    $0x4000003c,%eax
  4001c9:	31 ff                	xor    %edi,%edi
  4001cb:	0f 05                	syscall 

004001cd <find_string>:
  4001cd:	be 2f 48 40 00       	mov    $0x40482f,%esi

004001d2 <find_loop>:
  4001d2:	ff c6                	inc    %esi
  4001d4:	80 3e 00             	cmpb   $0x0,(%rsi)
  4001d7:	74 25                	je     4001fe <done>
  4001d9:	3b 1e                	cmp    (%rsi),%ebx
  4001db:	75 f5                	jne    4001d2 <find_loop>

004001dd <find_colon>:
  4001dd:	ac                   	lods   %ds:(%rsi),%al
  4001de:	3c 00                	cmp    $0x0,%al
  4001e0:	74 1c                	je     4001fe <done>
  4001e2:	3c 3a                	cmp    $0x3a,%al
  4001e4:	75 f7                	jne    4001dd <find_colon>

004001e6 <skip_spaces>:
  4001e6:	ac                   	lods   %ds:(%rsi),%al
  4001e7:	3c 20                	cmp    $0x20,%al
  4001e9:	74 fb                	je     4001e6 <skip_spaces>

004001eb <store_loop>:
  4001eb:	3c 00                	cmp    $0x0,%al
  4001ed:	74 0f                	je     4001fe <done>
  4001ef:	38 e0                	cmp    %ah,%al
  4001f1:	74 08                	je     4001fb <almost_done>
  4001f3:	3c 0a                	cmp    $0xa,%al
  4001f5:	74 04                	je     4001fb <almost_done>
  4001f7:	aa                   	stos   %al,%es:(%rdi)
  4001f8:	ac                   	lods   %ds:(%rsi),%al
  4001f9:	eb f0                	jmp    4001eb <store_loop>

004001fb <almost_done>:
  4001fb:	c6 07 00             	movb   $0x0,(%rdi)

004001fe <done>:
  4001fe:	c3                   	retq   

004001ff <strcat>:
  4001ff:	ac                   	lods   %ds:(%rsi),%al
  400200:	aa                   	stos   %al,%es:(%rdi)
  400201:	3c 00                	cmp    $0x0,%al
  400203:	75 fa                	jne    4001ff <strcat>
  400205:	ff cf                	dec    %edi
  400207:	c3                   	retq   

00400208 <center_and_print>:
  400208:	52                   	push   %rdx
  400209:	51                   	push   %rcx
  40020a:	ff c7                	inc    %edi
  40020c:	57                   	push   %rdi
  40020d:	66 b8 1b 5b          	mov    $0x5b1b,%ax
  400211:	66 ab                	stos   %ax,%es:(%rdi)
  400213:	99                   	cltd   

00400214 <str_loop2>:
  400214:	ff c2                	inc    %edx
  400216:	80 3c 11 00          	cmpb   $0x0,(%rcx,%rdx,1)
  40021a:	75 f8                	jne    400214 <str_loop2>
  40021c:	6a 51                	pushq  $0x51
  40021e:	58                   	pop    %rax
  40021f:	39 c2                	cmp    %eax,%edx
  400221:	7c 03                	jl     400226 <not_too_big>
  400223:	6a 50                	pushq  $0x50
  400225:	5a                   	pop    %rdx

00400226 <not_too_big>:
  400226:	29 d0                	sub    %edx,%eax
  400228:	d1 e8                	shr    %eax
  40022a:	e8 23 00 00 00       	callq  400252 <num_to_ascii>
  40022f:	b0 43                	mov    $0x43,%al
  400231:	66 ab                	stos   %ax,%es:(%rdi)
  400233:	59                   	pop    %rcx
  400234:	e8 02 00 00 00       	callq  40023b <write_stdout>

00400239 <done_center>:
  400239:	59                   	pop    %rcx
  40023a:	5a                   	pop    %rdx

0040023b <write_stdout>:
  40023b:	52                   	push   %rdx
  40023c:	b8 01 00 00 40       	mov    $0x40000001,%eax
  400241:	99                   	cltd   
  400242:	8d 7a 01             	lea    0x1(%rdx),%edi
  400245:	89 ce                	mov    %ecx,%esi

00400247 <str_loop1>:
  400247:	ff c2                	inc    %edx
  400249:	38 24 11             	cmp    %ah,(%rcx,%rdx,1)
  40024c:	75 f9                	jne    400247 <str_loop1>
  40024e:	0f 05                	syscall 
  400250:	5a                   	pop    %rdx
  400251:	c3                   	retq   

00400252 <num_to_ascii>:
  400252:	6a 0a                	pushq  $0xa
  400254:	5b                   	pop    %rbx
  400255:	31 c9                	xor    %ecx,%ecx

00400257 <div_by_10>:
  400257:	99                   	cltd   
  400258:	f7 f3                	div    %ebx
  40025a:	52                   	push   %rdx
  40025b:	ff c1                	inc    %ecx
  40025d:	09 c0                	or     %eax,%eax
  40025f:	75 f6                	jne    400257 <div_by_10>

00400261 <write_out>:
  400261:	58                   	pop    %rax
  400262:	04 30                	add    $0x30,%al
  400264:	aa                   	stos   %al,%es:(%rdi)
  400265:	e2 fa                	loop   400261 <write_out>
  400267:	c3                   	retq   
