
./ll:     file format elf32-vax

Disassembly of section .text:

00010074 <_start>:
   10074:	00          	halt
   10075:	00          	halt
   10076:	de ef f8 01 	moval 10274 <data_begin>,r9
   1007a:	00 00 59 
   1007d:	3c 8f c0 03 	movzwl $0x03c0,r4
   10081:	54 
   10082:	de a9 63 51 	moval 0x63(r9),r1
   10086:	de ef 84 19 	moval 11a10 <out_buffer>,r3
   1008a:	00 00 53 
   1008d:	d0 53 56    	movl r3,r6

00010090 <decompression_loop>:
   10090:	d4 55       	clrf r5
   10092:	90 81 57    	movb (r1)+,r7

00010095 <test_flags>:
   10095:	d1 8f f2 03 	cmpl $0x000103f2,r1
   10099:	01 00 51 
   1009c:	13 52       	beql 100f0 <done_logo>
   1009e:	e0 55 57 46 	bbs r5,r7,100e8 <discrete_char>

000100a2 <offset_length>:
   100a2:	9a 81 52    	movzbl (r1)+,r2
   100a5:	9a 81 5b    	movzbl (r1)+,r11
   100a8:	78 08 5b 5b 	ashl $0x8,r11,r11
   100ac:	88 52 5b    	bisb2 r2,r11
   100af:	3c 5b 52    	movzwl r11,r2
   100b2:	78 8f f6 52 	ashl $0xf6,r2,r2
   100b6:	52 
   100b7:	c0 03 52    	addl2 $0x3,r2

000100ba <output_loop>:
   100ba:	aa 8f 00 fc 	bicw2 $0xfc00,r11
   100be:	5b 
   100bf:	90 eb f8 03 	movb 0x103f8(r11),r10
   100c3:	01 00 5a 
   100c6:	d6 5b       	incl r11

000100c8 <store_byte>:
   100c8:	90 5a 83    	movb r10,(r3)+
   100cb:	90 5a e4 f8 	movb r10,0x103f8(r4)
   100cf:	03 01 00 
   100d2:	d6 54       	incl r4
   100d4:	aa 8f 00 fc 	bicw2 $0xfc00,r4
   100d8:	54 
   100d9:	9d 01 8f ff 	acbb $0x1,$0xff,r2,100ba <output_loop>
   100dd:	52 da ff 
   100e0:	9d 07 01 55 	acbb $0x7,$0x1,r5,10095 <test_flags>
   100e4:	af ff 
   100e6:	11 a8       	brb 10090 <decompression_loop>

000100e8 <discrete_char>:
   100e8:	90 81 5a    	movb (r1)+,r10
   100eb:	9a 01 52    	movzbl $0x1,r2
   100ee:	11 d8       	brb 100c8 <store_byte>

000100f0 <done_logo>:
   100f0:	d0 56 53    	movl r6,r3
   100f3:	30 46 01    	bsbw 1023c <write_stdout>

000100f6 <first_line>:
   100f6:	d0 56 5b    	movl r6,r11
   100f9:	de ef 89 07 	moval 10888 <uname_info>,r7
   100fd:	00 00 57 
   10100:	dd 57       	pushl r7
   10102:	9a 8f 7a 50 	movzbl $0x7a,r0
   10106:	fb 01 cf 61 	calls $0x1,1026c <syscall>
   1010a:	01 
   1010b:	d0 57 55    	movl r7,r5
   1010e:	10 58       	bsbb 10168 <strcat>
   10110:	d0 59 55    	movl r9,r5
   10113:	10 53       	bsbb 10168 <strcat>
   10115:	de c7 82 00 	moval 0x82(r7),r5
   10119:	55 
   1011a:	10 4c       	bsbb 10168 <strcat>
   1011c:	de a9 0a 55 	moval 0xa(r9),r5
   10120:	10 46       	bsbb 10168 <strcat>
   10122:	de c7 c3 00 	moval 0xc3(r7),r5
   10126:	55 
   10127:	10 3f       	bsbb 10168 <strcat>
   10129:	b0 0a 6b    	movw $0xa,(r11)
   1012c:	30 d6 00    	bsbw 10205 <center_and_print>

0001012f <middle_line>:
   1012f:	d0 56 5b    	movl r6,r11
   10132:	7d 00 7e    	movq $0x0,-(sp)
   10135:	dd 8f c9 02 	pushl $0x000102c9
   10139:	01 00 
   1013b:	9a 05 50    	movzbl $0x5,r0
   1013e:	fb 03 cf 29 	calls $0x3,1026c <syscall>
   10142:	01 
   10143:	d0 50 55    	movl r0,r5
   10146:	dd 8f 00 10 	pushl $0x00001000
   1014a:	00 00 
   1014c:	dd 8f 10 0a 	pushl $0x00010a10
   10150:	01 00 
   10152:	dd 55       	pushl r5
   10154:	9a 03 50    	movzbl $0x3,r0
   10157:	fb 03 cf 10 	calls $0x3,1026c <syscall>
   1015b:	01 
   1015c:	dd 55       	pushl r5
   1015e:	9a 06 50    	movzbl $0x6,r0
   10161:	fb 01 cf 06 	calls $0x1,1026c <syscall>
   10165:	01 
   10166:	11 15       	brb 1017d <number_of_cpus>

00010168 <strcat>:
   10168:	3a 00 8f ff 	locc $0x0,$0xffff,(r5)
   1016c:	ff 65 

0001016e <strcat_know_size>:
   1016e:	c3 55 51 50 	subl3 r5,r1,r0
   10172:	28 50 65 6b 	movc3 r0,(r5),(r11)
   10176:	d0 53 5b    	movl r3,r11
   10179:	90 00 6b    	movb $0x0,(r11)
   1017c:	05          	rsb

0001017d <number_of_cpus>:
   1017d:	de a9 16 55 	moval 0x16(r9),r5
   10181:	10 e5       	bsbb 10168 <strcat>

00010183 <chip_name>:
   10183:	de a9 4d 55 	moval 0x4d(r9),r5
   10187:	10 58       	bsbb 101e1 <find_string>
   10189:	de a9 1b 55 	moval 0x1b(r9),r5
   1018d:	10 d9       	bsbb 10168 <strcat>
   1018f:	de ef b3 06 	moval 10848 <sysinfo_buff>,r10
   10193:	00 00 5a 
   10196:	dd 5a       	pushl r10
   10198:	9a 8f 74 50 	movzbl $0x74,r0
   1019c:	fb 01 cf cb 	calls $0x1,1026c <syscall>
   101a0:	00 
   101a1:	d0 aa 10 53 	movl 0x10(r10),r3
   101a5:	78 8f ec 53 	ashl $0xec,r3,r2
   101a9:	52 
   101aa:	30 a5 00    	bsbw 10252 <num_to_ascii>
   101ad:	d0 51 55    	movl r1,r5
   101b0:	10 b6       	bsbb 10168 <strcat>
   101b2:	de a9 28 55 	moval 0x28(r9),r5
   101b6:	10 b0       	bsbb 10168 <strcat>
   101b8:	de a9 51 55 	moval 0x51(r9),r5
   101bc:	10 23       	bsbb 101e1 <find_string>
   101be:	de a9 30 55 	moval 0x30(r9),r5
   101c2:	10 a4       	bsbb 10168 <strcat>
   101c4:	10 3f       	bsbb 10205 <center_and_print>

000101c6 <third_line>:
   101c6:	d0 56 5b    	movl r6,r11
   101c9:	de a7 41 55 	moval 0x41(r7),r5
   101cd:	10 99       	bsbb 10168 <strcat>
   101cf:	10 34       	bsbb 10205 <center_and_print>
   101d1:	de a9 41 53 	moval 0x41(r9),r3
   101d5:	10 65       	bsbb 1023c <write_stdout>

000101d7 <exit>:
   101d7:	dd 00       	pushl $0x0
   101d9:	9a 01 50    	movzbl $0x1,r0
   101dc:	fb 01 cf 8b 	calls $0x1,1026c <syscall>
   101e0:	00 

000101e1 <find_string>:
   101e1:	de ef 29 08 	moval 10a10 <disk_buffer>,r0
   101e5:	00 00 50 
   101e8:	39 04 65 8f 	matchc $0x4,(r5),$0x1000,(r0)
   101ec:	00 10 60 
   101ef:	d0 53 55    	movl r3,r5

000101f2 <find_colon>:
   101f2:	3a 3a 8f ff 	locc $0x3a,$0xffff,(r5)
   101f6:	ff 65 
   101f8:	c1 51 02 55 	addl3 r1,$0x2,r5

000101fc <store_loop>:
   101fc:	3a 0a 8f ff 	locc $0xa,$0xffff,(r5)
   10200:	ff 65 
   10202:	31 69 ff    	brw 1016e <strcat_know_size>

00010205 <center_and_print>:
   10205:	de e9 48 00 	moval 0x48(r9),r3
   10209:	00 00 53 
   1020c:	10 2e       	bsbb 1023c <write_stdout>
   1020e:	ce 56 53    	mnegl r6,r3
   10211:	c0 5b 53    	addl2 r11,r3
   10214:	d0 8f 50 00 	movl $0x00000050,r1
   10218:	00 00 51 
   1021b:	91 53 51    	cmpb r3,r1
   1021e:	18 19       	bgeq 10239 <done_center>
   10220:	c3 53 51 53 	subl3 r3,r1,r3
   10224:	78 8f ff 53 	ashl $0xff,r3,r2
   10228:	52 
   10229:	10 27       	bsbb 10252 <num_to_ascii>
   1022b:	d0 51 53    	movl r1,r3
   1022e:	10 0c       	bsbb 1023c <write_stdout>
   10230:	de e9 4b 00 	moval 0x4b(r9),r3
   10234:	00 00 53 
   10237:	10 03       	bsbb 1023c <write_stdout>

00010239 <done_center>:
   10239:	d0 56 53    	movl r6,r3

0001023c <write_stdout>:
   1023c:	3a 00 8f ff 	locc $0x0,$0xffff,(r3)
   10240:	ff 63 
   10242:	c3 53 51 7e 	subl3 r3,r1,-(sp)
   10246:	dd 53       	pushl r3
   10248:	dd 01       	pushl $0x1
   1024a:	9a 04 50    	movzbl $0x4,r0
   1024d:	fb 03 af 1b 	calls $0x3,1026c <syscall>
   10251:	05          	rsb

00010252 <num_to_ascii>:
   10252:	de ef e8 05 	moval 10840 <ascii_buffer+0x8>,r1
   10256:	00 00 51 
   10259:	d4 53       	clrf r3

0001025b <div_by_10>:
   1025b:	7b 0a 52 54 	ediv $0xa,r2,r4,r5
   1025f:	55 

00010260 <write_out>:
   10260:	c0 30 55    	addl2 $0x30,r5
   10263:	90 55 71    	movb r5,-(r1)
   10266:	d0 54 52    	movl r4,r2
   10269:	12 f0       	bneq 1025b <div_by_10>
   1026b:	05          	rsb

0001026c <syscall>:
   1026c:	00          	halt
   1026d:	00          	halt
   1026e:	bc 50       	chmk r0
   10270:	04          	ret