
ll.vax:     file format elf32-vax

Disassembly of section .text:

00010074 <_start>:
   10074:	00          	halt
   10075:	00          	halt
   10076:	de ef bc 01 	moval 10238 <data_begin>,r9
   1007a:	00 00 59 
   1007d:	3c 8f c0 03 	movzwl $0x03c0,r4
   10081:	54 
   10082:	de a9 63 51 	moval 0x63(r9),r1
   10086:	de ef 44 19 	moval 119d0 <out_buffer>,r3
   1008a:	00 00 53 
   1008d:	de ef 25 03 	moval 103b8 <text_buf>,r8
   10091:	00 00 58 
   10094:	9e cf 98 01 	movab 10230 <syscall>,ap
   10098:	5c 
   10099:	d0 53 56    	movl r3,r6

0001009c <decompression_loop>:
   1009c:	9a 08 55    	movzbl $0x8,r5
   1009f:	9a 81 57    	movzbl (r1)+,r7

000100a2 <test_flags>:
   100a2:	d1 8f b6 03 	cmpl $0x000103b6,r1
   100a6:	01 00 51 
   100a9:	13 36       	beql 100e1 <done_logo>
   100ab:	e8 57 2b    	blbs r7,100d9 <discrete_char>

000100ae <offset_length>:
   100ae:	3c 81 5b    	movzwl (r1)+,r11
   100b1:	78 8f f6 5b 	ashl $0xf6,r11,r2
   100b5:	52 
   100b6:	c0 03 52    	addl2 $0x3,r2

000100b9 <output_loop>:
   100b9:	aa 8f 00 fc 	bicw2 $0xfc00,r11
   100bd:	5b 
   100be:	90 48 8b 50 	movb (r11)+[r8],r0

000100c2 <store_byte>:
   100c2:	90 50 83    	movb r0,(r3)+
   100c5:	90 50 48 84 	movb r0,(r4)+[r8]
   100c9:	aa 8f 00 fc 	bicw2 $0xfc00,r4
   100cd:	54 
   100ce:	f5 52 e8    	sobgtr r2,100b9 <output_loop>
   100d1:	c6 02 57    	divl2 $0x2,r7
   100d4:	f5 55 cb    	sobgtr r5,100a2 <test_flags>
   100d7:	11 c3       	brb 1009c <decompression_loop>

000100d9 <discrete_char>:
   100d9:	90 81 50    	movb (r1)+,r0
   100dc:	9a 01 52    	movzbl $0x1,r2
   100df:	11 e1       	brb 100c2 <store_byte>

000100e1 <done_logo>:
   100e1:	d0 56 50    	movl r6,r0
   100e4:	30 1a 01    	bsbw 10201 <write_stdout>

000100e7 <first_line>:
   100e7:	d0 56 5b    	movl r6,r11
   100ea:	de ef 58 07 	moval 10848 <uname_info>,r7
   100ee:	00 00 57 
   100f1:	dd 57       	pushl r7
   100f3:	9a 8f 7a 50 	movzbl $0x7a,r0
   100f7:	fb 01 6c    	calls $0x1,(ap)
   100fa:	d0 57 55    	movl r7,r5
   100fd:	10 51       	bsbb 10150 <strcat>
   100ff:	d0 59 55    	movl r9,r5
   10102:	10 4c       	bsbb 10150 <strcat>
   10104:	de c7 82 00 	moval 0x82(r7),r5
   10108:	55 
   10109:	10 45       	bsbb 10150 <strcat>
   1010b:	de a9 0a 55 	moval 0xa(r9),r5
   1010f:	10 3f       	bsbb 10150 <strcat>
   10111:	de c7 c3 00 	moval 0xc3(r7),r5
   10115:	55 
   10116:	10 38       	bsbb 10150 <strcat>
   10118:	b0 0a 6b    	movw $0xa,(r11)
   1011b:	30 bc 00    	bsbw 101da <center_and_print>

0001011e <middle_line>:
   1011e:	d0 56 5b    	movl r6,r11
   10121:	7c 7e       	clrd -(sp)
   10123:	dd 8f 8d 02 	pushl $0x0001028d
   10127:	01 00 
   10129:	9a 05 50    	movzbl $0x5,r0
   1012c:	fb 03 6c    	calls $0x3,(ap)
   1012f:	d0 50 55    	movl r0,r5
   10132:	dd 8f 00 10 	pushl $0x00001000
   10136:	00 00 
   10138:	dd 8f d0 09 	pushl $0x000109d0
   1013c:	01 00 
   1013e:	dd 55       	pushl r5
   10140:	9a 03 50    	movzbl $0x3,r0
   10143:	fb 03 6c    	calls $0x3,(ap)
   10146:	dd 55       	pushl r5
   10148:	9a 06 50    	movzbl $0x6,r0
   1014b:	fb 01 6c    	calls $0x1,(ap)
   1014e:	11 08       	brb 10158 <number_of_cpus>

00010150 <strcat>:
   10150:	90 85 8b    	movb (r5)+,(r11)+
   10153:	12 fb       	bneq 10150 <strcat>
   10155:	d7 5b       	decl r11
   10157:	05          	rsb

00010158 <number_of_cpus>:
   10158:	de a9 16 55 	moval 0x16(r9),r5
   1015c:	10 f2       	bsbb 10150 <strcat>

0001015e <chip_name>:
   1015e:	de a9 4d 55 	moval 0x4d(r9),r5
   10162:	10 54       	bsbb 101b8 <find_string>
   10164:	de a9 1b 55 	moval 0x1b(r9),r5
   10168:	10 e6       	bsbb 10150 <strcat>
   1016a:	de ef 98 06 	moval 10808 <sysinfo_buff>,r10
   1016e:	00 00 5a 
   10171:	dd 5a       	pushl r10
   10173:	9a 8f 74 50 	movzbl $0x74,r0
   10177:	fb 01 6c    	calls $0x1,(ap)
   1017a:	d0 aa 10 53 	movl 0x10(r10),r3
   1017e:	78 8f ec 53 	ashl $0xec,r3,r2
   10182:	52 
   10183:	30 90 00    	bsbw 10216 <num_to_ascii>
   10186:	d0 51 55    	movl r1,r5
   10189:	10 c5       	bsbb 10150 <strcat>
   1018b:	de a9 28 55 	moval 0x28(r9),r5
   1018f:	10 bf       	bsbb 10150 <strcat>
   10191:	de a9 51 55 	moval 0x51(r9),r5
   10195:	10 21       	bsbb 101b8 <find_string>
   10197:	de a9 30 55 	moval 0x30(r9),r5
   1019b:	10 b3       	bsbb 10150 <strcat>
   1019d:	10 3b       	bsbb 101da <center_and_print>

0001019f <third_line>:
   1019f:	d0 56 5b    	movl r6,r11
   101a2:	de a7 41 55 	moval 0x41(r7),r5
   101a6:	10 a8       	bsbb 10150 <strcat>
   101a8:	10 30       	bsbb 101da <center_and_print>
   101aa:	de a9 41 50 	moval 0x41(r9),r0
   101ae:	10 51       	bsbb 10201 <write_stdout>

000101b0 <exit>:
   101b0:	dd 00       	pushl $0x0
   101b2:	9a 01 50    	movzbl $0x1,r0
   101b5:	fb 01 6c    	calls $0x1,(ap)

000101b8 <find_string>:
   101b8:	de ef 12 08 	moval 109d0 <disk_buffer>,r0
   101bc:	00 00 50 

000101bf <find_loop>:
   101bf:	d1 65 60    	cmpl (r5),(r0)
   101c2:	13 04       	beql 101c8 <find_colon>
   101c4:	d6 50       	incl r0
   101c6:	11 f7       	brb 101bf <find_loop>

000101c8 <find_colon>:
   101c8:	91 3a 80    	cmpb $0x3a,(r0)+
   101cb:	12 fb       	bneq 101c8 <find_colon>
   101cd:	d6 50       	incl r0

000101cf <copy_rest>:
   101cf:	90 80 8b    	movb (r0)+,(r11)+
   101d2:	91 0a 60    	cmpb $0xa,(r0)
   101d5:	12 f8       	bneq 101cf <copy_rest>
   101d7:	94 6b       	clrb (r11)
   101d9:	05          	rsb

000101da <center_and_print>:
   101da:	de a9 48 50 	moval 0x48(r9),r0
   101de:	10 21       	bsbb 10201 <write_stdout>
   101e0:	c3 56 5b 53 	subl3 r6,r11,r3
   101e4:	c3 53 8f 50 	subl3 r3,$0x00000050,r2
   101e8:	00 00 00 52 
   101ec:	19 10       	blss 101fe <done_center>
   101ee:	c6 02 52    	divl2 $0x2,r2
   101f1:	10 23       	bsbb 10216 <num_to_ascii>
   101f3:	d0 51 50    	movl r1,r0
   101f6:	10 09       	bsbb 10201 <write_stdout>
   101f8:	de a9 4b 50 	moval 0x4b(r9),r0
   101fc:	10 03       	bsbb 10201 <write_stdout>

000101fe <done_center>:
   101fe:	d0 56 50    	movl r6,r0

00010201 <write_stdout>:
   10201:	d4 51       	clrf r1

00010203 <write_loop>:
   10203:	95 40 81    	tstb (r1)+[r0]
   10206:	12 fb       	bneq 10203 <write_loop>
   10208:	d7 51       	decl r1
   1020a:	7d 50 7e    	movq r0,-(sp)
   1020d:	dd 01       	pushl $0x1
   1020f:	9a 04 50    	movzbl $0x4,r0
   10212:	fb 03 6c    	calls $0x3,(ap)
   10215:	05          	rsb

00010216 <num_to_ascii>:
   10216:	de ef e4 05 	moval 10800 <ascii_buffer+0x8>,r1
   1021a:	00 00 51 
   1021d:	d4 53       	clrf r3

0001021f <div_by_10>:
   1021f:	7b 0a 52 54 	ediv $0xa,r2,r4,r5
   10223:	55 

00010224 <write_out>:
   10224:	c0 30 55    	addl2 $0x30,r5
   10227:	90 55 71    	movb r5,-(r1)
   1022a:	d0 54 52    	movl r4,r2
   1022d:	12 f0       	bneq 1021f <div_by_10>
   1022f:	05          	rsb

00010230 <syscall>:
   10230:	00          	halt
   10231:	00          	halt
   10232:	bc 50       	chmk r0
   10234:	04          	ret
Disassembly of section .data:

00010238 <data_begin>:
   10238:	20 56 65 72 	addp4 r6,(r5),-(r2),-(r3)
   1023c:	73 
   1023d:	69 6f 6e    	cvtdw (pc),(sp)
   10240:	20 00 2c 20 	addp4 $0x0,$0x2c,$0x20,(pc)[r3]
   10244:	43 6f 

00010242 <compiled_string>:
   10242:	2c 20 43 6f 	movc5 $0x20,(pc)[r3],(fp),-(r0),(r9)
   10246:	6d 70 69 
   10249:	6c 65 64    	cvtbd (r5),(r4)
   1024c:	20 00 4f 6e 	addp4 $0x0,(sp)[pc],(r5),$0x20
   10250:	65 20 

0001024e <one>:
   1024e:	4f 6e 65 20 	acbf (sp),(r5),$0x20 [f-float],12254 <out_buffer+0x884>
   10252:	00 20 

00010253 <processor_string>:
   10253:	20 50 72 6f 	addp4 r0,-(r2),(pc),(r3)
   10257:	63 
   10258:	65 73 73 6f 	muld3 -(r3),-(r3),(pc)
   1025c:	72 2c 20    	mnegd $0x2c [d-float],$0x20 [d-float]
	...

00010260 <ram_comma>:
   10260:	4d 20 52    	cvtwf $0x20,r2
   10263:	41 4d 2c 20 	addf3 $0x2c [f-float][fp],$0x20 [f-float],$0x0 [f-float]
   10267:	00 

00010268 <bogo_total>:
   10268:	20 42 6f 67 	addp4 (pc)[r2],(r7),(pc),(fp)
   1026c:	6f 6d 
   1026e:	69 70 73    	cvtdw -(r0),-(r3)
   10271:	20 54 6f 74 	addp4 r4,(pc),-(r4),(r1)
   10275:	61 
   10276:	6c 0a 00    	cvtbd $0xa,$0x0 [d-float]

00010279 <default_colors>:
   10279:	1b 5b       	blequ 102d6 <logo+0x3b>
   1027b:	30 6d 0a    	bsbw 10ceb <disk_buffer+0x31b>
   1027e:	0a 00 1b 5b 	index $0x0,$0x1b,r11,$0x0,$0x0[r3],-(r4)
   10282:	00 43 00 74 

00010280 <escape>:
   10280:	1b 5b       	blequ 102dd <logo+0x42>
	...

00010283 <C>:
   10283:	43 00 74 79 	subf3 $0x0 [f-float],-(r4),-(r9)

00010285 <type_string>:
   10285:	74 79 70 65 	emodd -(r9),-(r0),(r5),(pc)[r2],(r7)
   10289:	42 6f 67 

00010289 <bogo_string>:
   10289:	42 6f 67    	subf2 (pc),(r7)
   1028c:	6f 2f 70 72 	acbd $0x2f [d-float],-(r0),-(r2),16601 <_end+0xc31>
   10290:	6f 63 

0001028d <cpuinfo>:
   1028d:	2f 70 72 6f 	movtuc -(r0),-(r2),(pc),(r3),$0x2f,(r3)
   10291:	63 2f 63 
   10294:	70 75 69    	movd -(r5),(r9)
   10297:	6e 66 6f    	cvtld (r6),(pc)
	...

0001029b <logo>:
   1029b:	ff 1b       	.word 0xff1b
   1029d:	5b 30       	.word 0x5b30
   1029f:	3b 31 3b 33 	skpc $0x31,$0x3b,$0x33
   102a3:	37 9f 3b 34 	cmpp4 *0x6d37343b,$0x23,0xffffc0f7(ap),$0x7
   102a7:	37 6d 23 cc 
   102ab:	f7 c0 07 
   102ae:	33 8d 30    	cvtwb (fp)+,$0x30
   102b1:	c8 1b 1b    	bisl2 $0x1b,$0x1b
   102b4:	5b c4       	.word 0x5bc4
   102b6:	07          	svpctx
   102b7:	cb 1f 1c 0c 	bicl3 $0x1f,$0x1c,$0xc
   102bb:	3b 0f 34 30 	skpc $0xf,$0x34,$0x30
   102bf:	6d 0a c0 f7 	cvtwd $0xa,0x1f7(r0)
   102c3:	01 
   102c4:	60 1a 38    	addd2 $0x1a [d-float],$0x38 [d-float]
   102c7:	2c 9c 1f 1b 	movc5 @(ap)+,$0x1f,$0x1b,r11,$0x33
   102cb:	5b 33 
   102cd:	31 6d cc    	brw cf3d <N+0xcb3d>
   102d0:	04          	ret
   102d1:	41 ac 0d 24 	addf3 0xd(ap),$0x24 [f-float],$0x2 [f-float]
   102d5:	02 
   102d6:	1c 10       	bvc 102e8 <logo+0x4d>
   102d8:	4f 0d 20 10 	acbf $0xd [f-float],$0x20 [f-float],$0x10 [f-float],961f <N+0x921f>
   102dc:	41 93 
   102de:	98 83 34    	cvtbl (r3)+,$0x34
   102e1:	1c 34       	bvc 10317 <logo+0x7c>
   102e3:	cc 10 10    	xorl2 $0x10,$0x10
   102e6:	0c 24 6f 39 	prober $0x24,(pc),$0x39
   102ea:	ec a7 1c 08 	cmpv 0x1c(r7),$0x8,$0x33,$0x16
   102ee:	33 16 
   102f0:	14 89       	bgtr 1027b <default_colors+0x2>
   102f2:	55 2c 60 00 	polyf $0x2c [f-float],(r0),$0x0
   102f6:	2b 61 d6 71 	spanc (r1),*0xffffe271(r6),0x8cb(r8),*0xffffd309(r4)
   102fa:	e2 c8 cb 08 
   102fe:	d4 09 d3 
   10301:	10 2b       	bsbb 1032e <logo+0x93>
   10303:	59 f5       	.word 0x59f5
   10305:	d1 00 80    	cmpl $0x0,(r0)+
   10308:	11 d2       	brb 102dc <logo+0x41>
   1030a:	18 0d       	bgeq 10319 <logo+0x7e>
   1030c:	28 1c 14 0d 	movc3 $0x1c,$0x14,$0xd
   10310:	2c 1c 1c f0 	movc5 $0x1c,$0x1c,*0x5b1a4a(r0),$0xd,r0
   10314:	4a 1a 5b 00 
   10318:	0d 50 
   1031a:	5f 65 87    	remqti (r5),(r7)+
   1031d:	65 2b 55 f5 	muld3 $0x2b [d-float],r5,*0xcd28cdcd(r5)
   10321:	cd cd 28 cd 
   10325:	14 89       	bgtr 102b0 <logo+0x15>
   10327:	41 00 1d 87 	addf3 $0x0 [f-float],$0x1d [f-float],(r7)+
   1032b:	42 4b 72 53 	subf2 -(r2)[r11],r3
   1032f:	1c 78       	bvc 103a9 <logo+0x10e>
   10331:	0f 62 87    	remque (r2),(r7)+
   10334:	6d 55 58    	cvtwd r5,r8
   10337:	f7 c1 00 e8 	cvtlw 0xffffe800(r1),$0x2b
   1033b:	2b 
   1033c:	f4 97 49    	sobgeq @(r7)+,10388 <logo+0xed>
   1033f:	78 3d b0 1b 	ashl $0x3d,*0x1b(r0),pc
   10343:	5f 
   10344:	97 b0 12    	decb *0x12(r0)
   10347:	2b ab ca 10 	spanc 0xffffffca(r11),$0x10,*11d64 <out_buffer+0x394>,*0x3fd9f55a(r5)
   1034b:	df 16 1a f5 
   1034f:	5a f5 d9 3f 
   10353:	33 1b 56    	cvtwb $0x1b,r6
   10356:	92 5b b0 02 	mcomb r11,*0x2(r0)
   1035a:	00          	halt
   1035b:	0c 1d d3 c8 	prober $0x1d,*0xffffacc8(r3),$0x39
   1035f:	ac 39 
   10361:	17 66       	jmp (r6)
   10363:	32 f6 6e 6d 	cvtwl *0x44ec6d6e(r6),(r0)
   10367:	ec 44 60 
   1036a:	5e 08 af 0a 	remqhi $0x8,10378 <logo+0xdd>
   1036e:	a6 69 14    	divw2 (r9),$0x14
   10371:	01          	nop
   10372:	30 33 0b    	bsbw 10ea8 <disk_buffer+0x4d8>
   10375:	de 1f 31    	moval $0x1f,$0x31
   10378:	0f d3 bc 00 	remque *0xbc(r3),103cd <text_buf+0x15>
   1037c:	af 4f 
   1037e:	19 56       	blss 103d6 <text_buf+0x1e>
   10380:	aa 45 52 db 	bicw2 r2[r5],*0x5228(r11)
   10384:	28 52 
   10386:	46 7f 08    	divf2 -(pc),$0x8 [f-float]
   10389:	53 db 23 00 	tstf *0x23(r11)
   1038d:	a9 55 aa 35 	bisw3 r5,0x35(r10),$0x18
   10391:	18 
   10392:	21 12 68 91 	addp6 $0x12,(r8),@(r1)+,$0x2a,0xffffb222(r8),(r8)
   10396:	2a c8 22 b2 
   1039a:	68 
   1039b:	70 2d 00    	movd $0x2d [d-float],$0x0 [d-float]
   1039e:	c6 50 b2 79 	divl2 r0,*0x79(r2)
   103a2:	91 4a 70 31 	cmpb -(r0)[r10],$0x31
   103a6:	f8 51 f3 28 	ashp r1,*0xff17dd28(r3),$0x17,$0x8,$0x2,$0x36
   103aa:	dd 17 ff 17 
   103ae:	08 02 36 
   103b1:	03          	bpt
   103b2:	cvtpt Address 0x000103b4 is out of bounds.

Disassembly of section .bss:

000103b8 <text_buf>:
	...

000107f8 <ascii_buffer>:
	...

00010808 <sysinfo_buff>:
	...

00010848 <uname_info>:
	...

000109d0 <disk_buffer>:
	...

000119d0 <out_buffer>:
	...
