
./ll.thumb2:     file format elf32-littlearm


Disassembly of section .text:

00010054 <_start>:
   10054:	a36b      	add	r3, pc, #428	; (adr r3, 10204 <addresses_begin>)
   10056:	e8b3 1907 	ldmia.w	r3!, {r0, r1, r2, r8, fp, ip}

0001005a <decompression_loop>:
   1005a:	f813 4b01 	ldrb.w	r4, [r3], #1
   1005e:	f444 4500 	orr.w	r5, r4, #32768	; 0x8000

00010062 <test_flags>:
   10062:	4543      	cmp	r3, r8
   10064:	da1e      	bge.n	100a4 <done_logo>
   10066:	086d      	lsrs	r5, r5, #1
   10068:	bf22      	ittt	cs

0001006a <discrete_char>:
   1006a:	781c      	ldrbcs	r4, [r3, #0]
   1006c:	3301      	addcs	r3, #1
   1006e:	2601      	movcs	r6, #1
   10070:	d20d      	bcs.n	1008e <store_byte>

00010072 <offset_length>:
   10072:	f813 4b01 	ldrb.w	r4, [r3], #1
   10076:	f813 6b01 	ldrb.w	r6, [r3], #1
   1007a:	ea54 2606 	orrs.w	r6, r4, r6, lsl #8
   1007e:	4637      	mov	r7, r6
   10080:	2403      	movs	r4, #3
   10082:	eb04 2696 	add.w	r6, r4, r6, lsr #10

00010086 <output_loop>:
   10086:	05bf      	lsls	r7, r7, #22
   10088:	0dbf      	lsrs	r7, r7, #22
   1008a:	5dc4      	ldrb	r4, [r0, r7]
   1008c:	3701      	adds	r7, #1

0001008e <store_byte>:
   1008e:	f801 4b01 	strb.w	r4, [r1], #1
   10092:	5484      	strb	r4, [r0, r2]
   10094:	3201      	adds	r2, #1
   10096:	0592      	lsls	r2, r2, #22
   10098:	0d92      	lsrs	r2, r2, #22
   1009a:	3e01      	subs	r6, #1
   1009c:	d1f3      	bne.n	10086 <output_loop>
   1009e:	2dff      	cmp	r5, #255	; 0xff
   100a0:	dcdf      	bgt.n	10062 <test_flags>
   100a2:	e7da      	b.n	1005a <decompression_loop>

000100a4 <done_logo>:
   100a4:	4958      	ldr	r1, [pc, #352]	; (10208 <out_addr>)
   100a6:	4658      	mov	r0, fp
   100a8:	3808      	subs	r0, #8
   100aa:	4682      	mov	sl, r0
   100ac:	301a      	adds	r0, #26
   100ae:	4681      	mov	r9, r0
   100b0:	3868      	subs	r0, #104	; 0x68
   100b2:	4680      	mov	r8, r0
   100b4:	47c8      	blx	r9

000100b6 <first_line>:
   100b6:	484f      	ldr	r0, [pc, #316]	; (101f4 <uname_addr>)
   100b8:	4605      	mov	r5, r0
   100ba:	277a      	movs	r7, #122	; 0x7a
   100bc:	df00      	svc	0
   100be:	4e52      	ldr	r6, [pc, #328]	; (10208 <out_addr>)
   100c0:	47d0      	blx	sl
   100c2:	4c4a      	ldr	r4, [pc, #296]	; (101ec <ver_addr>)
   100c4:	47d8      	blx	fp
   100c6:	3582      	adds	r5, #130	; 0x82
   100c8:	47d0      	blx	sl
   100ca:	47d8      	blx	fp
   100cc:	3541      	adds	r5, #65	; 0x41
   100ce:	47d0      	blx	sl
   100d0:	47d8      	blx	fp
   100d2:	47c0      	blx	r8

000100d4 <middle_line>:
   100d4:	4e4c      	ldr	r6, [pc, #304]	; (10208 <out_addr>)
   100d6:	4620      	mov	r0, r4
   100d8:	2100      	movs	r1, #0
   100da:	2705      	movs	r7, #5
   100dc:	df00      	svc	0
   100de:	4603      	mov	r3, r0
   100e0:	4947      	ldr	r1, [pc, #284]	; (10200 <disk_addr>)
   100e2:	f44f 5280 	mov.w	r2, #4096	; 0x1000
   100e6:	2703      	movs	r7, #3
   100e8:	df00      	svc	0
   100ea:	4618      	mov	r0, r3
   100ec:	2706      	movs	r7, #6
   100ee:	df00      	svc	0

000100f0 <number_of_cpus>:
   100f0:	340e      	adds	r4, #14
   100f2:	47d8      	blx	fp

000100f4 <chip_name>:
   100f4:	2061      	movs	r0, #97	; 0x61
   100f6:	2172      	movs	r1, #114	; 0x72
   100f8:	2265      	movs	r2, #101	; 0x65
   100fa:	230a      	movs	r3, #10
   100fc:	f000 f81d 	bl	1013a <find_string>
   10100:	47d8      	blx	fp

00010102 <ram>:
   10102:	483d      	ldr	r0, [pc, #244]	; (101f8 <sysinfo_addr>)
   10104:	4602      	mov	r2, r0
   10106:	2774      	movs	r7, #116	; 0x74
   10108:	df00      	svc	0
   1010a:	3210      	adds	r2, #16
   1010c:	6813      	ldr	r3, [r2, #0]
   1010e:	0d1b      	lsrs	r3, r3, #20
   10110:	2001      	movs	r0, #1
   10112:	f000 f840 	bl	10196 <num_to_ascii>
   10116:	47d8      	blx	fp

00010118 <bogomips>:
   10118:	2049      	movs	r0, #73	; 0x49
   1011a:	2150      	movs	r1, #80	; 0x50
   1011c:	2253      	movs	r2, #83	; 0x53
   1011e:	230a      	movs	r3, #10
   10120:	f000 f80b 	bl	1013a <find_string>
   10124:	47d8      	blx	fp
   10126:	47c0      	blx	r8

00010128 <last_line>:
   10128:	4e37      	ldr	r6, [pc, #220]	; (10208 <out_addr>)
   1012a:	3d82      	subs	r5, #130	; 0x82
   1012c:	47d0      	blx	sl
   1012e:	47c0      	blx	r8
   10130:	492f      	ldr	r1, [pc, #188]	; (101f0 <colors_addr>)
   10132:	47c8      	blx	r9

00010134 <exit>:
   10134:	2000      	movs	r0, #0
   10136:	2701      	movs	r7, #1
   10138:	df00      	svc	0

0001013a <find_string>:
   1013a:	b5a0      	push	{r5, r7, lr}
   1013c:	4f30      	ldr	r7, [pc, #192]	; (10200 <disk_addr>)

0001013e <find_loop>:
   1013e:	783d      	ldrb	r5, [r7, #0]
   10140:	b1b5      	cbz	r5, 10170 <done>
   10142:	3701      	adds	r7, #1
   10144:	4285      	cmp	r5, r0
   10146:	d1fa      	bne.n	1013e <find_loop>
   10148:	783d      	ldrb	r5, [r7, #0]
   1014a:	428d      	cmp	r5, r1
   1014c:	d1f7      	bne.n	1013e <find_loop>
   1014e:	787d      	ldrb	r5, [r7, #1]
   10150:	4295      	cmp	r5, r2
   10152:	d1f4      	bne.n	1013e <find_loop>

00010154 <find_colon>:
   10154:	783d      	ldrb	r5, [r7, #0]
   10156:	3701      	adds	r7, #1
   10158:	2d3a      	cmp	r5, #58	; 0x3a
   1015a:	d1fb      	bne.n	10154 <find_colon>
   1015c:	3701      	adds	r7, #1

0001015e <store_loop>:
   1015e:	783d      	ldrb	r5, [r7, #0]
   10160:	7035      	strb	r5, [r6, #0]
   10162:	3701      	adds	r7, #1
   10164:	3601      	adds	r6, #1
   10166:	429d      	cmp	r5, r3
   10168:	d1f9      	bne.n	1015e <store_loop>

0001016a <almost_done>:
   1016a:	2000      	movs	r0, #0
   1016c:	7030      	strb	r0, [r6, #0]
   1016e:	3e01      	subs	r6, #1

00010170 <done>:
   10170:	bda0      	pop	{r5, r7, pc}

00010172 <center_and_print>:
   10172:	b518      	push	{r3, r4, lr}
   10174:	491e      	ldr	r1, [pc, #120]	; (101f0 <colors_addr>)
   10176:	2202      	movs	r2, #2
   10178:	f000 f834 	bl	101e4 <write_stdout_we_know_size>

0001017c <str_loop2>:
   1017c:	4a22      	ldr	r2, [pc, #136]	; (10208 <out_addr>)
   1017e:	1b92      	subs	r2, r2, r6
   10180:	3251      	adds	r2, #81	; 0x51
   10182:	db05      	blt.n	10190 <done_center>
   10184:	0853      	lsrs	r3, r2, #1
   10186:	2000      	movs	r0, #0
   10188:	f000 f805 	bl	10196 <num_to_ascii>
   1018c:	3107      	adds	r1, #7
   1018e:	47c8      	blx	r9

00010190 <done_center>:
   10190:	491d      	ldr	r1, [pc, #116]	; (10208 <out_addr>)
   10192:	47c8      	blx	r9
   10194:	bd18      	pop	{r3, r4, pc}

00010196 <num_to_ascii>:
   10196:	b53e      	push	{r1, r2, r3, r4, r5, lr}
   10198:	4a18      	ldr	r2, [pc, #96]	; (101fc <ascii_addr>)
   1019a:	3209      	adds	r2, #9

0001019c <div_by_10>:
   1019c:	4c1e      	ldr	r4, [pc, #120]	; (10218 <strcat_addr+0x4>)
   1019e:	fba4 4703 	umull	r4, r7, r4, r3
   101a2:	240a      	movs	r4, #10
   101a4:	fb04 3117 	mls	r1, r4, r7, r3
   101a8:	3130      	adds	r1, #48	; 0x30
   101aa:	7011      	strb	r1, [r2, #0]
   101ac:	3a01      	subs	r2, #1
   101ae:	1c3b      	adds	r3, r7, #0
   101b0:	d1f4      	bne.n	1019c <div_by_10>

000101b2 <write_out>:
   101b2:	1c51      	adds	r1, r2, #1
   101b4:	b110      	cbz	r0, 101bc <num_stdout>
   101b6:	460d      	mov	r5, r1
   101b8:	47d0      	blx	sl
   101ba:	bd3e      	pop	{r1, r2, r3, r4, r5, pc}

000101bc <num_stdout>:
   101bc:	47c8      	blx	r9
   101be:	bd3e      	pop	{r1, r2, r3, r4, r5, pc}

000101c0 <strcat_r5>:
   101c0:	b510      	push	{r4, lr}
   101c2:	462c      	mov	r4, r5
   101c4:	47d8      	blx	fp
   101c6:	bd10      	pop	{r4, pc}

000101c8 <strcat_r4>:
   101c8:	b508      	push	{r3, lr}

000101ca <strcat_loop>:
   101ca:	7823      	ldrb	r3, [r4, #0]
   101cc:	3401      	adds	r4, #1
   101ce:	7033      	strb	r3, [r6, #0]
   101d0:	3601      	adds	r6, #1
   101d2:	2b00      	cmp	r3, #0
   101d4:	d1f9      	bne.n	101ca <strcat_loop>
   101d6:	3e01      	subs	r6, #1
   101d8:	bd08      	pop	{r3, pc}

000101da <write_stdout>:
   101da:	2200      	movs	r2, #0

000101dc <str_loop1>:
   101dc:	3201      	adds	r2, #1
   101de:	5c8b      	ldrb	r3, [r1, r2]
   101e0:	2b00      	cmp	r3, #0
   101e2:	d1fb      	bne.n	101dc <str_loop1>

000101e4 <write_stdout_we_know_size>:
   101e4:	2001      	movs	r0, #1
   101e6:	2704      	movs	r7, #4
   101e8:	df00      	svc	0
   101ea:	4770      	bx	lr

000101ec <ver_addr>:
   101ec:	00010337 	andeq	r0, r1, r7, lsr r3

000101f0 <colors_addr>:
   101f0:	00010388 	andeq	r0, r1, r8, lsl #7

000101f4 <uname_addr>:
   101f4:	00010398 	muleq	r1, r8, r3

000101f8 <sysinfo_addr>:
   101f8:	00010520 	andeq	r0, r1, r0, lsr #10

000101fc <ascii_addr>:
   101fc:	00010560 	andeq	r0, r1, r0, ror #10

00010200 <disk_addr>:
   10200:	000109b0 			; <UNDEFINED> instruction: 0x000109b0

00010204 <addresses_begin>:
   10204:	00010570 	andeq	r0, r1, r0, ror r5

00010208 <out_addr>:
   10208:	000119b0 			; <UNDEFINED> instruction: 0x000119b0

0001020c <R>:
   1020c:	000003c0 	andeq	r0, r0, r0, asr #7

00010210 <logo_end_addr>:
   10210:	00010337 	andeq	r0, r1, r7, lsr r3

00010214 <strcat_addr>:
   10214:	000101c9 	andeq	r0, r1, r9, asr #3
   10218:	1999999a 	ldmibne	r9, {r1, r3, r4, r7, r8, fp, ip, pc}
